ARM GAS  /tmp/cccQDy3L.s 			page 1


   1              		.syntax unified
   2              		.cpu cortex-m4
   3              		.eabi_attribute 27, 1
   4              		.fpu fpv4-sp-d16
   5              		.eabi_attribute 20, 1
   6              		.eabi_attribute 21, 1
   7              		.eabi_attribute 23, 3
   8              		.eabi_attribute 24, 1
   9              		.eabi_attribute 25, 1
  10              		.eabi_attribute 26, 1
  11              		.eabi_attribute 30, 6
  12              		.eabi_attribute 34, 1
  13              		.eabi_attribute 18, 4
  14              		.thumb
  15              		.file	"stm32l4xx_hal_dma.c"
  16              		.text
  17              	.Ltext0:
  18              		.cfi_sections	.debug_frame
  19              		.section	.text.HAL_DMA_Init,"ax",%progbits
  20              		.align	2
  21              		.global	HAL_DMA_Init
  22              		.thumb
  23              		.thumb_func
  25              	HAL_DMA_Init:
  26              	.LFB125:
  27              		.file 1 "Drivers/STM32L4xx_HAL_Driver/Src/stm32l4xx_hal_dma.c"
   1:Drivers/STM32L4xx_HAL_Driver/Src/stm32l4xx_hal_dma.c **** /**
   2:Drivers/STM32L4xx_HAL_Driver/Src/stm32l4xx_hal_dma.c ****   ******************************************************************************
   3:Drivers/STM32L4xx_HAL_Driver/Src/stm32l4xx_hal_dma.c ****   * @file    stm32l4xx_hal_dma.c
   4:Drivers/STM32L4xx_HAL_Driver/Src/stm32l4xx_hal_dma.c ****   * @author  MCD Application Team
   5:Drivers/STM32L4xx_HAL_Driver/Src/stm32l4xx_hal_dma.c ****   * @version V1.1.1
   6:Drivers/STM32L4xx_HAL_Driver/Src/stm32l4xx_hal_dma.c ****   * @date    16-October-2015
   7:Drivers/STM32L4xx_HAL_Driver/Src/stm32l4xx_hal_dma.c ****   * @brief   DMA HAL module driver.
   8:Drivers/STM32L4xx_HAL_Driver/Src/stm32l4xx_hal_dma.c ****   *    
   9:Drivers/STM32L4xx_HAL_Driver/Src/stm32l4xx_hal_dma.c ****   *         This file provides firmware functions to manage the following
  10:Drivers/STM32L4xx_HAL_Driver/Src/stm32l4xx_hal_dma.c ****   *         functionalities of the Direct Memory Access (DMA) peripheral:
  11:Drivers/STM32L4xx_HAL_Driver/Src/stm32l4xx_hal_dma.c ****   *           + Initialization and de-initialization functions
  12:Drivers/STM32L4xx_HAL_Driver/Src/stm32l4xx_hal_dma.c ****   *           + IO operation functions
  13:Drivers/STM32L4xx_HAL_Driver/Src/stm32l4xx_hal_dma.c ****   *           + Peripheral State and errors functions
  14:Drivers/STM32L4xx_HAL_Driver/Src/stm32l4xx_hal_dma.c ****   @verbatim
  15:Drivers/STM32L4xx_HAL_Driver/Src/stm32l4xx_hal_dma.c ****   ==============================================================================
  16:Drivers/STM32L4xx_HAL_Driver/Src/stm32l4xx_hal_dma.c ****                         ##### How to use this driver #####
  17:Drivers/STM32L4xx_HAL_Driver/Src/stm32l4xx_hal_dma.c ****   ==============================================================================
  18:Drivers/STM32L4xx_HAL_Driver/Src/stm32l4xx_hal_dma.c ****   [..]
  19:Drivers/STM32L4xx_HAL_Driver/Src/stm32l4xx_hal_dma.c ****    (#) Enable and configure the peripheral to be connected to the DMA Channel
  20:Drivers/STM32L4xx_HAL_Driver/Src/stm32l4xx_hal_dma.c ****        (except for internal SRAM / FLASH memories: no initialization is 
  21:Drivers/STM32L4xx_HAL_Driver/Src/stm32l4xx_hal_dma.c ****        necessary). Please refer to the Reference manual for connection between peripherals
  22:Drivers/STM32L4xx_HAL_Driver/Src/stm32l4xx_hal_dma.c ****        and DMA requests.
  23:Drivers/STM32L4xx_HAL_Driver/Src/stm32l4xx_hal_dma.c **** 
  24:Drivers/STM32L4xx_HAL_Driver/Src/stm32l4xx_hal_dma.c ****    (#) For a given Channel, program the required configuration through the following parameters:
  25:Drivers/STM32L4xx_HAL_Driver/Src/stm32l4xx_hal_dma.c ****        Channel request, Transfer Direction, Source and Destination data formats,
  26:Drivers/STM32L4xx_HAL_Driver/Src/stm32l4xx_hal_dma.c ****        Circular or Normal mode, Channel Priority level, Source and Destination Increment mode
  27:Drivers/STM32L4xx_HAL_Driver/Src/stm32l4xx_hal_dma.c ****        using HAL_DMA_Init() function.
  28:Drivers/STM32L4xx_HAL_Driver/Src/stm32l4xx_hal_dma.c **** 
  29:Drivers/STM32L4xx_HAL_Driver/Src/stm32l4xx_hal_dma.c ****    (#) Use HAL_DMA_GetState() function to return the DMA state and HAL_DMA_GetError() in case of er
  30:Drivers/STM32L4xx_HAL_Driver/Src/stm32l4xx_hal_dma.c ****        detection.
  31:Drivers/STM32L4xx_HAL_Driver/Src/stm32l4xx_hal_dma.c ****                     
ARM GAS  /tmp/cccQDy3L.s 			page 2


  32:Drivers/STM32L4xx_HAL_Driver/Src/stm32l4xx_hal_dma.c ****    (#) Use HAL_DMA_Abort() function to abort the current transfer
  33:Drivers/STM32L4xx_HAL_Driver/Src/stm32l4xx_hal_dma.c ****                    
  34:Drivers/STM32L4xx_HAL_Driver/Src/stm32l4xx_hal_dma.c ****      -@-   In Memory-to-Memory transfer mode, Circular mode is not allowed.
  35:Drivers/STM32L4xx_HAL_Driver/Src/stm32l4xx_hal_dma.c ****      *** Polling mode IO operation ***
  36:Drivers/STM32L4xx_HAL_Driver/Src/stm32l4xx_hal_dma.c ****      =================================
  37:Drivers/STM32L4xx_HAL_Driver/Src/stm32l4xx_hal_dma.c ****     [..]
  38:Drivers/STM32L4xx_HAL_Driver/Src/stm32l4xx_hal_dma.c ****           (+) Use HAL_DMA_Start() to start DMA transfer after the configuration of Source
  39:Drivers/STM32L4xx_HAL_Driver/Src/stm32l4xx_hal_dma.c ****               address and destination address and the Length of data to be transferred
  40:Drivers/STM32L4xx_HAL_Driver/Src/stm32l4xx_hal_dma.c ****           (+) Use HAL_DMA_PollForTransfer() to poll for the end of current transfer, in this
  41:Drivers/STM32L4xx_HAL_Driver/Src/stm32l4xx_hal_dma.c ****               case a fixed Timeout can be configured by User depending from his application.
  42:Drivers/STM32L4xx_HAL_Driver/Src/stm32l4xx_hal_dma.c **** 
  43:Drivers/STM32L4xx_HAL_Driver/Src/stm32l4xx_hal_dma.c ****      *** Interrupt mode IO operation ***
  44:Drivers/STM32L4xx_HAL_Driver/Src/stm32l4xx_hal_dma.c ****      ===================================
  45:Drivers/STM32L4xx_HAL_Driver/Src/stm32l4xx_hal_dma.c ****     [..]
  46:Drivers/STM32L4xx_HAL_Driver/Src/stm32l4xx_hal_dma.c ****           (+) Configure the DMA interrupt priority using HAL_NVIC_SetPriority()
  47:Drivers/STM32L4xx_HAL_Driver/Src/stm32l4xx_hal_dma.c ****           (+) Enable the DMA IRQ handler using HAL_NVIC_EnableIRQ()
  48:Drivers/STM32L4xx_HAL_Driver/Src/stm32l4xx_hal_dma.c ****           (+) Use HAL_DMA_Start_IT() to start DMA transfer after the configuration of
  49:Drivers/STM32L4xx_HAL_Driver/Src/stm32l4xx_hal_dma.c ****               Source address and destination address and the Length of data to be transferred.
  50:Drivers/STM32L4xx_HAL_Driver/Src/stm32l4xx_hal_dma.c ****               In this case the DMA interrupt is configured
  51:Drivers/STM32L4xx_HAL_Driver/Src/stm32l4xx_hal_dma.c ****           (+) Use HAL_DMA_IRQHandler() called under DMA_IRQHandler() Interrupt subroutine
  52:Drivers/STM32L4xx_HAL_Driver/Src/stm32l4xx_hal_dma.c ****           (+) At the end of data transfer HAL_DMA_IRQHandler() function is executed and user can
  53:Drivers/STM32L4xx_HAL_Driver/Src/stm32l4xx_hal_dma.c ****               add his own function by customization of function pointer XferCpltCallback and
  54:Drivers/STM32L4xx_HAL_Driver/Src/stm32l4xx_hal_dma.c ****               XferErrorCallback (i.e. a member of DMA handle structure).
  55:Drivers/STM32L4xx_HAL_Driver/Src/stm32l4xx_hal_dma.c **** 
  56:Drivers/STM32L4xx_HAL_Driver/Src/stm32l4xx_hal_dma.c ****      *** DMA HAL driver macros list ***
  57:Drivers/STM32L4xx_HAL_Driver/Src/stm32l4xx_hal_dma.c ****      ============================================= 
  58:Drivers/STM32L4xx_HAL_Driver/Src/stm32l4xx_hal_dma.c ****       [..]
  59:Drivers/STM32L4xx_HAL_Driver/Src/stm32l4xx_hal_dma.c ****        Below the list of most used macros in DMA HAL driver.
  60:Drivers/STM32L4xx_HAL_Driver/Src/stm32l4xx_hal_dma.c **** 
  61:Drivers/STM32L4xx_HAL_Driver/Src/stm32l4xx_hal_dma.c ****        (+) __HAL_DMA_ENABLE: Enable the specified DMA Channel.
  62:Drivers/STM32L4xx_HAL_Driver/Src/stm32l4xx_hal_dma.c ****        (+) __HAL_DMA_DISABLE: Disable the specified DMA Channel.
  63:Drivers/STM32L4xx_HAL_Driver/Src/stm32l4xx_hal_dma.c ****        (+) __HAL_DMA_GET_FLAG: Get the DMA Channel pending flags.
  64:Drivers/STM32L4xx_HAL_Driver/Src/stm32l4xx_hal_dma.c ****        (+) __HAL_DMA_CLEAR_FLAG: Clear the DMA Channel pending flags.
  65:Drivers/STM32L4xx_HAL_Driver/Src/stm32l4xx_hal_dma.c ****        (+) __HAL_DMA_ENABLE_IT: Enable the specified DMA Channel interrupts.
  66:Drivers/STM32L4xx_HAL_Driver/Src/stm32l4xx_hal_dma.c ****        (+) __HAL_DMA_DISABLE_IT: Disable the specified DMA Channel interrupts.
  67:Drivers/STM32L4xx_HAL_Driver/Src/stm32l4xx_hal_dma.c ****        (+) __HAL_DMA_GET_IT_SOURCE: Check whether the specified DMA Channel interrupt has occurred 
  68:Drivers/STM32L4xx_HAL_Driver/Src/stm32l4xx_hal_dma.c **** 
  69:Drivers/STM32L4xx_HAL_Driver/Src/stm32l4xx_hal_dma.c ****      [..] 
  70:Drivers/STM32L4xx_HAL_Driver/Src/stm32l4xx_hal_dma.c ****       (@) You can refer to the DMA HAL driver header file for more useful macros  
  71:Drivers/STM32L4xx_HAL_Driver/Src/stm32l4xx_hal_dma.c **** 
  72:Drivers/STM32L4xx_HAL_Driver/Src/stm32l4xx_hal_dma.c ****   @endverbatim
  73:Drivers/STM32L4xx_HAL_Driver/Src/stm32l4xx_hal_dma.c ****   ******************************************************************************
  74:Drivers/STM32L4xx_HAL_Driver/Src/stm32l4xx_hal_dma.c ****   * @attention
  75:Drivers/STM32L4xx_HAL_Driver/Src/stm32l4xx_hal_dma.c ****   *
  76:Drivers/STM32L4xx_HAL_Driver/Src/stm32l4xx_hal_dma.c ****   * <h2><center>&copy; COPYRIGHT(c) 2015 STMicroelectronics</center></h2>
  77:Drivers/STM32L4xx_HAL_Driver/Src/stm32l4xx_hal_dma.c ****   *
  78:Drivers/STM32L4xx_HAL_Driver/Src/stm32l4xx_hal_dma.c ****   * Redistribution and use in source and binary forms, with or without modification,
  79:Drivers/STM32L4xx_HAL_Driver/Src/stm32l4xx_hal_dma.c ****   * are permitted provided that the following conditions are met:
  80:Drivers/STM32L4xx_HAL_Driver/Src/stm32l4xx_hal_dma.c ****   *   1. Redistributions of source code must retain the above copyright notice,
  81:Drivers/STM32L4xx_HAL_Driver/Src/stm32l4xx_hal_dma.c ****   *      this list of conditions and the following disclaimer.
  82:Drivers/STM32L4xx_HAL_Driver/Src/stm32l4xx_hal_dma.c ****   *   2. Redistributions in binary form must reproduce the above copyright notice,
  83:Drivers/STM32L4xx_HAL_Driver/Src/stm32l4xx_hal_dma.c ****   *      this list of conditions and the following disclaimer in the documentation
  84:Drivers/STM32L4xx_HAL_Driver/Src/stm32l4xx_hal_dma.c ****   *      and/or other materials provided with the distribution.
  85:Drivers/STM32L4xx_HAL_Driver/Src/stm32l4xx_hal_dma.c ****   *   3. Neither the name of STMicroelectronics nor the names of its contributors
  86:Drivers/STM32L4xx_HAL_Driver/Src/stm32l4xx_hal_dma.c ****   *      may be used to endorse or promote products derived from this software
  87:Drivers/STM32L4xx_HAL_Driver/Src/stm32l4xx_hal_dma.c ****   *      without specific prior written permission.
  88:Drivers/STM32L4xx_HAL_Driver/Src/stm32l4xx_hal_dma.c ****   *
ARM GAS  /tmp/cccQDy3L.s 			page 3


  89:Drivers/STM32L4xx_HAL_Driver/Src/stm32l4xx_hal_dma.c ****   * THIS SOFTWARE IS PROVIDED BY THE COPYRIGHT HOLDERS AND CONTRIBUTORS "AS IS"
  90:Drivers/STM32L4xx_HAL_Driver/Src/stm32l4xx_hal_dma.c ****   * AND ANY EXPRESS OR IMPLIED WARRANTIES, INCLUDING, BUT NOT LIMITED TO, THE
  91:Drivers/STM32L4xx_HAL_Driver/Src/stm32l4xx_hal_dma.c ****   * IMPLIED WARRANTIES OF MERCHANTABILITY AND FITNESS FOR A PARTICULAR PURPOSE ARE
  92:Drivers/STM32L4xx_HAL_Driver/Src/stm32l4xx_hal_dma.c ****   * DISCLAIMED. IN NO EVENT SHALL THE COPYRIGHT HOLDER OR CONTRIBUTORS BE LIABLE
  93:Drivers/STM32L4xx_HAL_Driver/Src/stm32l4xx_hal_dma.c ****   * FOR ANY DIRECT, INDIRECT, INCIDENTAL, SPECIAL, EXEMPLARY, OR CONSEQUENTIAL
  94:Drivers/STM32L4xx_HAL_Driver/Src/stm32l4xx_hal_dma.c ****   * DAMAGES (INCLUDING, BUT NOT LIMITED TO, PROCUREMENT OF SUBSTITUTE GOODS OR
  95:Drivers/STM32L4xx_HAL_Driver/Src/stm32l4xx_hal_dma.c ****   * SERVICES; LOSS OF USE, DATA, OR PROFITS; OR BUSINESS INTERRUPTION) HOWEVER
  96:Drivers/STM32L4xx_HAL_Driver/Src/stm32l4xx_hal_dma.c ****   * CAUSED AND ON ANY THEORY OF LIABILITY, WHETHER IN CONTRACT, STRICT LIABILITY,
  97:Drivers/STM32L4xx_HAL_Driver/Src/stm32l4xx_hal_dma.c ****   * OR TORT (INCLUDING NEGLIGENCE OR OTHERWISE) ARISING IN ANY WAY OUT OF THE USE
  98:Drivers/STM32L4xx_HAL_Driver/Src/stm32l4xx_hal_dma.c ****   * OF THIS SOFTWARE, EVEN IF ADVISED OF THE POSSIBILITY OF SUCH DAMAGE.
  99:Drivers/STM32L4xx_HAL_Driver/Src/stm32l4xx_hal_dma.c ****   *
 100:Drivers/STM32L4xx_HAL_Driver/Src/stm32l4xx_hal_dma.c ****   ******************************************************************************
 101:Drivers/STM32L4xx_HAL_Driver/Src/stm32l4xx_hal_dma.c ****   */
 102:Drivers/STM32L4xx_HAL_Driver/Src/stm32l4xx_hal_dma.c **** 
 103:Drivers/STM32L4xx_HAL_Driver/Src/stm32l4xx_hal_dma.c **** /* Includes ------------------------------------------------------------------*/
 104:Drivers/STM32L4xx_HAL_Driver/Src/stm32l4xx_hal_dma.c **** #include "stm32l4xx_hal.h"
 105:Drivers/STM32L4xx_HAL_Driver/Src/stm32l4xx_hal_dma.c **** 
 106:Drivers/STM32L4xx_HAL_Driver/Src/stm32l4xx_hal_dma.c **** /** @addtogroup STM32L4xx_HAL_Driver
 107:Drivers/STM32L4xx_HAL_Driver/Src/stm32l4xx_hal_dma.c ****   * @{
 108:Drivers/STM32L4xx_HAL_Driver/Src/stm32l4xx_hal_dma.c ****   */
 109:Drivers/STM32L4xx_HAL_Driver/Src/stm32l4xx_hal_dma.c **** 
 110:Drivers/STM32L4xx_HAL_Driver/Src/stm32l4xx_hal_dma.c **** /** @defgroup DMA DMA
 111:Drivers/STM32L4xx_HAL_Driver/Src/stm32l4xx_hal_dma.c ****   * @brief DMA HAL module driver
 112:Drivers/STM32L4xx_HAL_Driver/Src/stm32l4xx_hal_dma.c ****   * @{
 113:Drivers/STM32L4xx_HAL_Driver/Src/stm32l4xx_hal_dma.c ****   */
 114:Drivers/STM32L4xx_HAL_Driver/Src/stm32l4xx_hal_dma.c **** 
 115:Drivers/STM32L4xx_HAL_Driver/Src/stm32l4xx_hal_dma.c **** #ifdef HAL_DMA_MODULE_ENABLED
 116:Drivers/STM32L4xx_HAL_Driver/Src/stm32l4xx_hal_dma.c **** 
 117:Drivers/STM32L4xx_HAL_Driver/Src/stm32l4xx_hal_dma.c **** /* Private typedef -----------------------------------------------------------*/
 118:Drivers/STM32L4xx_HAL_Driver/Src/stm32l4xx_hal_dma.c **** /* Private define ------------------------------------------------------------*/
 119:Drivers/STM32L4xx_HAL_Driver/Src/stm32l4xx_hal_dma.c **** /** @defgroup DMA_Private_Constants DMA Private Constants
 120:Drivers/STM32L4xx_HAL_Driver/Src/stm32l4xx_hal_dma.c ****   * @{
 121:Drivers/STM32L4xx_HAL_Driver/Src/stm32l4xx_hal_dma.c ****   */
 122:Drivers/STM32L4xx_HAL_Driver/Src/stm32l4xx_hal_dma.c **** #define HAL_TIMEOUT_DMA_ABORT    ((uint32_t)1000)  /* 1s  */
 123:Drivers/STM32L4xx_HAL_Driver/Src/stm32l4xx_hal_dma.c **** /**
 124:Drivers/STM32L4xx_HAL_Driver/Src/stm32l4xx_hal_dma.c ****   * @}
 125:Drivers/STM32L4xx_HAL_Driver/Src/stm32l4xx_hal_dma.c ****   */
 126:Drivers/STM32L4xx_HAL_Driver/Src/stm32l4xx_hal_dma.c **** 
 127:Drivers/STM32L4xx_HAL_Driver/Src/stm32l4xx_hal_dma.c **** /* Private macro -------------------------------------------------------------*/
 128:Drivers/STM32L4xx_HAL_Driver/Src/stm32l4xx_hal_dma.c **** /* Private variables ---------------------------------------------------------*/
 129:Drivers/STM32L4xx_HAL_Driver/Src/stm32l4xx_hal_dma.c **** /* Private function prototypes -----------------------------------------------*/
 130:Drivers/STM32L4xx_HAL_Driver/Src/stm32l4xx_hal_dma.c **** /** @defgroup DMA_Private_Functions DMA Private Functions
 131:Drivers/STM32L4xx_HAL_Driver/Src/stm32l4xx_hal_dma.c ****   * @{
 132:Drivers/STM32L4xx_HAL_Driver/Src/stm32l4xx_hal_dma.c ****   */
 133:Drivers/STM32L4xx_HAL_Driver/Src/stm32l4xx_hal_dma.c **** static void DMA_SetConfig(DMA_HandleTypeDef *hdma, uint32_t SrcAddress, uint32_t DstAddress, uint32
 134:Drivers/STM32L4xx_HAL_Driver/Src/stm32l4xx_hal_dma.c **** /**
 135:Drivers/STM32L4xx_HAL_Driver/Src/stm32l4xx_hal_dma.c ****   * @}
 136:Drivers/STM32L4xx_HAL_Driver/Src/stm32l4xx_hal_dma.c ****   */
 137:Drivers/STM32L4xx_HAL_Driver/Src/stm32l4xx_hal_dma.c **** 
 138:Drivers/STM32L4xx_HAL_Driver/Src/stm32l4xx_hal_dma.c **** /* Exported functions ---------------------------------------------------------*/
 139:Drivers/STM32L4xx_HAL_Driver/Src/stm32l4xx_hal_dma.c **** 
 140:Drivers/STM32L4xx_HAL_Driver/Src/stm32l4xx_hal_dma.c **** /** @defgroup DMA_Exported_Functions DMA Exported Functions
 141:Drivers/STM32L4xx_HAL_Driver/Src/stm32l4xx_hal_dma.c ****   * @{
 142:Drivers/STM32L4xx_HAL_Driver/Src/stm32l4xx_hal_dma.c ****   */
 143:Drivers/STM32L4xx_HAL_Driver/Src/stm32l4xx_hal_dma.c **** 
 144:Drivers/STM32L4xx_HAL_Driver/Src/stm32l4xx_hal_dma.c **** /** @defgroup DMA_Exported_Functions_Group1 Initialization and de-initialization functions
 145:Drivers/STM32L4xx_HAL_Driver/Src/stm32l4xx_hal_dma.c ****  *  @brief   Initialization and de-initialization functions 
ARM GAS  /tmp/cccQDy3L.s 			page 4


 146:Drivers/STM32L4xx_HAL_Driver/Src/stm32l4xx_hal_dma.c ****  *
 147:Drivers/STM32L4xx_HAL_Driver/Src/stm32l4xx_hal_dma.c **** @verbatim
 148:Drivers/STM32L4xx_HAL_Driver/Src/stm32l4xx_hal_dma.c ****  ===============================================================================
 149:Drivers/STM32L4xx_HAL_Driver/Src/stm32l4xx_hal_dma.c ****              ##### Initialization and de-initialization functions  #####
 150:Drivers/STM32L4xx_HAL_Driver/Src/stm32l4xx_hal_dma.c ****  ===============================================================================
 151:Drivers/STM32L4xx_HAL_Driver/Src/stm32l4xx_hal_dma.c ****     [..]
 152:Drivers/STM32L4xx_HAL_Driver/Src/stm32l4xx_hal_dma.c ****     This section provides functions allowing to initialize the DMA Channel source
 153:Drivers/STM32L4xx_HAL_Driver/Src/stm32l4xx_hal_dma.c ****     and destination addresses, incrementation and data sizes, transfer direction, 
 154:Drivers/STM32L4xx_HAL_Driver/Src/stm32l4xx_hal_dma.c ****     circular/normal mode selection, memory-to-memory mode selection and Channel priority value.
 155:Drivers/STM32L4xx_HAL_Driver/Src/stm32l4xx_hal_dma.c ****     [..]
 156:Drivers/STM32L4xx_HAL_Driver/Src/stm32l4xx_hal_dma.c ****     The HAL_DMA_Init() function follows the DMA configuration procedures as described in
 157:Drivers/STM32L4xx_HAL_Driver/Src/stm32l4xx_hal_dma.c ****     reference manual.  
 158:Drivers/STM32L4xx_HAL_Driver/Src/stm32l4xx_hal_dma.c **** 
 159:Drivers/STM32L4xx_HAL_Driver/Src/stm32l4xx_hal_dma.c **** @endverbatim
 160:Drivers/STM32L4xx_HAL_Driver/Src/stm32l4xx_hal_dma.c ****   * @{
 161:Drivers/STM32L4xx_HAL_Driver/Src/stm32l4xx_hal_dma.c ****   */
 162:Drivers/STM32L4xx_HAL_Driver/Src/stm32l4xx_hal_dma.c **** 
 163:Drivers/STM32L4xx_HAL_Driver/Src/stm32l4xx_hal_dma.c **** /**
 164:Drivers/STM32L4xx_HAL_Driver/Src/stm32l4xx_hal_dma.c ****   * @brief  Initialize the DMA according to the specified
 165:Drivers/STM32L4xx_HAL_Driver/Src/stm32l4xx_hal_dma.c ****   *         parameters in the DMA_InitTypeDef and initialize the associated handle.
 166:Drivers/STM32L4xx_HAL_Driver/Src/stm32l4xx_hal_dma.c ****   * @param  hdma: Pointer to a DMA_HandleTypeDef structure that contains
 167:Drivers/STM32L4xx_HAL_Driver/Src/stm32l4xx_hal_dma.c ****   *               the configuration information for the specified DMA Channel.
 168:Drivers/STM32L4xx_HAL_Driver/Src/stm32l4xx_hal_dma.c ****   * @retval HAL status
 169:Drivers/STM32L4xx_HAL_Driver/Src/stm32l4xx_hal_dma.c ****   */
 170:Drivers/STM32L4xx_HAL_Driver/Src/stm32l4xx_hal_dma.c **** HAL_StatusTypeDef HAL_DMA_Init(DMA_HandleTypeDef *hdma)
 171:Drivers/STM32L4xx_HAL_Driver/Src/stm32l4xx_hal_dma.c **** {
  28              		.loc 1 171 0
  29              		.cfi_startproc
  30              		@ args = 0, pretend = 0, frame = 16
  31              		@ frame_needed = 1, uses_anonymous_args = 0
  32              		@ link register save eliminated.
  33 0000 80B4     		push	{r7}
  34              	.LCFI0:
  35              		.cfi_def_cfa_offset 4
  36              		.cfi_offset 7, -4
  37 0002 85B0     		sub	sp, sp, #20
  38              	.LCFI1:
  39              		.cfi_def_cfa_offset 24
  40 0004 00AF     		add	r7, sp, #0
  41              	.LCFI2:
  42              		.cfi_def_cfa_register 7
  43 0006 7860     		str	r0, [r7, #4]
 172:Drivers/STM32L4xx_HAL_Driver/Src/stm32l4xx_hal_dma.c ****   uint32_t tmp = 0;
  44              		.loc 1 172 0
  45 0008 0023     		movs	r3, #0
  46 000a FB60     		str	r3, [r7, #12]
 173:Drivers/STM32L4xx_HAL_Driver/Src/stm32l4xx_hal_dma.c **** 
 174:Drivers/STM32L4xx_HAL_Driver/Src/stm32l4xx_hal_dma.c ****   /* Check the DMA handle allocation */
 175:Drivers/STM32L4xx_HAL_Driver/Src/stm32l4xx_hal_dma.c ****   if(hdma == NULL)
  47              		.loc 1 175 0
  48 000c 7B68     		ldr	r3, [r7, #4]
  49 000e 002B     		cmp	r3, #0
  50 0010 01D1     		bne	.L2
 176:Drivers/STM32L4xx_HAL_Driver/Src/stm32l4xx_hal_dma.c ****   {
 177:Drivers/STM32L4xx_HAL_Driver/Src/stm32l4xx_hal_dma.c ****     return HAL_ERROR;
  51              		.loc 1 177 0
  52 0012 0123     		movs	r3, #1
ARM GAS  /tmp/cccQDy3L.s 			page 5


  53 0014 55E1     		b	.L3
  54              	.L2:
 178:Drivers/STM32L4xx_HAL_Driver/Src/stm32l4xx_hal_dma.c ****   }
 179:Drivers/STM32L4xx_HAL_Driver/Src/stm32l4xx_hal_dma.c **** 
 180:Drivers/STM32L4xx_HAL_Driver/Src/stm32l4xx_hal_dma.c ****   /* Check the parameters */
 181:Drivers/STM32L4xx_HAL_Driver/Src/stm32l4xx_hal_dma.c ****   assert_param(IS_DMA_ALL_INSTANCE(hdma->Instance));
 182:Drivers/STM32L4xx_HAL_Driver/Src/stm32l4xx_hal_dma.c ****   assert_param(IS_DMA_DIRECTION(hdma->Init.Direction));
 183:Drivers/STM32L4xx_HAL_Driver/Src/stm32l4xx_hal_dma.c ****   assert_param(IS_DMA_PERIPHERAL_INC_STATE(hdma->Init.PeriphInc));
 184:Drivers/STM32L4xx_HAL_Driver/Src/stm32l4xx_hal_dma.c ****   assert_param(IS_DMA_MEMORY_INC_STATE(hdma->Init.MemInc));
 185:Drivers/STM32L4xx_HAL_Driver/Src/stm32l4xx_hal_dma.c ****   assert_param(IS_DMA_PERIPHERAL_DATA_SIZE(hdma->Init.PeriphDataAlignment));
 186:Drivers/STM32L4xx_HAL_Driver/Src/stm32l4xx_hal_dma.c ****   assert_param(IS_DMA_MEMORY_DATA_SIZE(hdma->Init.MemDataAlignment));
 187:Drivers/STM32L4xx_HAL_Driver/Src/stm32l4xx_hal_dma.c ****   assert_param(IS_DMA_MODE(hdma->Init.Mode));
 188:Drivers/STM32L4xx_HAL_Driver/Src/stm32l4xx_hal_dma.c ****   assert_param(IS_DMA_PRIORITY(hdma->Init.Priority));
 189:Drivers/STM32L4xx_HAL_Driver/Src/stm32l4xx_hal_dma.c ****   if(hdma->Init.Direction != DMA_MEMORY_TO_MEMORY)
 190:Drivers/STM32L4xx_HAL_Driver/Src/stm32l4xx_hal_dma.c ****   {
 191:Drivers/STM32L4xx_HAL_Driver/Src/stm32l4xx_hal_dma.c ****     assert_param(IS_DMA_ALL_REQUEST(hdma->Init.Request));
 192:Drivers/STM32L4xx_HAL_Driver/Src/stm32l4xx_hal_dma.c ****   }
 193:Drivers/STM32L4xx_HAL_Driver/Src/stm32l4xx_hal_dma.c ****   
 194:Drivers/STM32L4xx_HAL_Driver/Src/stm32l4xx_hal_dma.c ****   if(hdma->State == HAL_DMA_STATE_RESET)
  55              		.loc 1 194 0
  56 0016 7B68     		ldr	r3, [r7, #4]
  57 0018 93F82530 		ldrb	r3, [r3, #37]
  58 001c DBB2     		uxtb	r3, r3
  59 001e 002B     		cmp	r3, #0
  60 0020 03D1     		bne	.L4
 195:Drivers/STM32L4xx_HAL_Driver/Src/stm32l4xx_hal_dma.c ****   {  
 196:Drivers/STM32L4xx_HAL_Driver/Src/stm32l4xx_hal_dma.c ****     /* Allocate lock resource and initialize it */
 197:Drivers/STM32L4xx_HAL_Driver/Src/stm32l4xx_hal_dma.c ****     hdma->Lock = HAL_UNLOCKED;
  61              		.loc 1 197 0
  62 0022 7B68     		ldr	r3, [r7, #4]
  63 0024 0022     		movs	r2, #0
  64 0026 83F82420 		strb	r2, [r3, #36]
  65              	.L4:
 198:Drivers/STM32L4xx_HAL_Driver/Src/stm32l4xx_hal_dma.c ****   }
 199:Drivers/STM32L4xx_HAL_Driver/Src/stm32l4xx_hal_dma.c **** 
 200:Drivers/STM32L4xx_HAL_Driver/Src/stm32l4xx_hal_dma.c ****   /* Change DMA peripheral state */
 201:Drivers/STM32L4xx_HAL_Driver/Src/stm32l4xx_hal_dma.c ****   hdma->State = HAL_DMA_STATE_BUSY;
  66              		.loc 1 201 0
  67 002a 7B68     		ldr	r3, [r7, #4]
  68 002c 0222     		movs	r2, #2
  69 002e 83F82520 		strb	r2, [r3, #37]
 202:Drivers/STM32L4xx_HAL_Driver/Src/stm32l4xx_hal_dma.c **** 
 203:Drivers/STM32L4xx_HAL_Driver/Src/stm32l4xx_hal_dma.c ****   /* Get the CR register value */
 204:Drivers/STM32L4xx_HAL_Driver/Src/stm32l4xx_hal_dma.c ****   tmp = hdma->Instance->CCR;
  70              		.loc 1 204 0
  71 0032 7B68     		ldr	r3, [r7, #4]
  72 0034 1B68     		ldr	r3, [r3]
  73 0036 1B68     		ldr	r3, [r3]
  74 0038 FB60     		str	r3, [r7, #12]
 205:Drivers/STM32L4xx_HAL_Driver/Src/stm32l4xx_hal_dma.c **** 
 206:Drivers/STM32L4xx_HAL_Driver/Src/stm32l4xx_hal_dma.c ****   /* Clear PL, MSIZE, PSIZE, MINC, PINC, CIRC, DIR bits */
 207:Drivers/STM32L4xx_HAL_Driver/Src/stm32l4xx_hal_dma.c ****   tmp &= ((uint32_t)~(DMA_CCR_PL    | DMA_CCR_MSIZE  | DMA_CCR_PSIZE  | \
  75              		.loc 1 207 0
  76 003a FB68     		ldr	r3, [r7, #12]
  77 003c 23F47F53 		bic	r3, r3, #16320
  78 0040 23F03003 		bic	r3, r3, #48
  79 0044 FB60     		str	r3, [r7, #12]
ARM GAS  /tmp/cccQDy3L.s 			page 6


 208:Drivers/STM32L4xx_HAL_Driver/Src/stm32l4xx_hal_dma.c ****                       DMA_CCR_MINC  | DMA_CCR_PINC   | DMA_CCR_CIRC   | \
 209:Drivers/STM32L4xx_HAL_Driver/Src/stm32l4xx_hal_dma.c ****                       DMA_CCR_DIR));
 210:Drivers/STM32L4xx_HAL_Driver/Src/stm32l4xx_hal_dma.c **** 
 211:Drivers/STM32L4xx_HAL_Driver/Src/stm32l4xx_hal_dma.c ****   /* Prepare the DMA Channel configuration */
 212:Drivers/STM32L4xx_HAL_Driver/Src/stm32l4xx_hal_dma.c ****   tmp |=  hdma->Init.Direction        |
  80              		.loc 1 212 0
  81 0046 7B68     		ldr	r3, [r7, #4]
  82 0048 9A68     		ldr	r2, [r3, #8]
 213:Drivers/STM32L4xx_HAL_Driver/Src/stm32l4xx_hal_dma.c ****           hdma->Init.PeriphInc           | hdma->Init.MemInc           |
  83              		.loc 1 213 0
  84 004a 7B68     		ldr	r3, [r7, #4]
  85 004c DB68     		ldr	r3, [r3, #12]
 212:Drivers/STM32L4xx_HAL_Driver/Src/stm32l4xx_hal_dma.c ****           hdma->Init.PeriphInc           | hdma->Init.MemInc           |
  86              		.loc 1 212 0
  87 004e 1A43     		orrs	r2, r2, r3
  88              		.loc 1 213 0
  89 0050 7B68     		ldr	r3, [r7, #4]
  90 0052 1B69     		ldr	r3, [r3, #16]
  91 0054 1A43     		orrs	r2, r2, r3
 214:Drivers/STM32L4xx_HAL_Driver/Src/stm32l4xx_hal_dma.c ****           hdma->Init.PeriphDataAlignment | hdma->Init.MemDataAlignment |
  92              		.loc 1 214 0
  93 0056 7B68     		ldr	r3, [r7, #4]
  94 0058 5B69     		ldr	r3, [r3, #20]
 213:Drivers/STM32L4xx_HAL_Driver/Src/stm32l4xx_hal_dma.c ****           hdma->Init.PeriphInc           | hdma->Init.MemInc           |
  95              		.loc 1 213 0
  96 005a 1A43     		orrs	r2, r2, r3
  97              		.loc 1 214 0
  98 005c 7B68     		ldr	r3, [r7, #4]
  99 005e 9B69     		ldr	r3, [r3, #24]
 100 0060 1A43     		orrs	r2, r2, r3
 215:Drivers/STM32L4xx_HAL_Driver/Src/stm32l4xx_hal_dma.c ****           hdma->Init.Mode                | hdma->Init.Priority;
 101              		.loc 1 215 0
 102 0062 7B68     		ldr	r3, [r7, #4]
 103 0064 DB69     		ldr	r3, [r3, #28]
 214:Drivers/STM32L4xx_HAL_Driver/Src/stm32l4xx_hal_dma.c ****           hdma->Init.PeriphDataAlignment | hdma->Init.MemDataAlignment |
 104              		.loc 1 214 0
 105 0066 1A43     		orrs	r2, r2, r3
 106              		.loc 1 215 0
 107 0068 7B68     		ldr	r3, [r7, #4]
 108 006a 1B6A     		ldr	r3, [r3, #32]
 109 006c 1343     		orrs	r3, r3, r2
 212:Drivers/STM32L4xx_HAL_Driver/Src/stm32l4xx_hal_dma.c ****           hdma->Init.PeriphInc           | hdma->Init.MemInc           |
 110              		.loc 1 212 0
 111 006e FA68     		ldr	r2, [r7, #12]
 112 0070 1343     		orrs	r3, r3, r2
 113 0072 FB60     		str	r3, [r7, #12]
 216:Drivers/STM32L4xx_HAL_Driver/Src/stm32l4xx_hal_dma.c **** 
 217:Drivers/STM32L4xx_HAL_Driver/Src/stm32l4xx_hal_dma.c ****   /* Write to DMA Channel CR register */
 218:Drivers/STM32L4xx_HAL_Driver/Src/stm32l4xx_hal_dma.c ****   hdma->Instance->CCR = tmp;
 114              		.loc 1 218 0
 115 0074 7B68     		ldr	r3, [r7, #4]
 116 0076 1B68     		ldr	r3, [r3]
 117 0078 FA68     		ldr	r2, [r7, #12]
 118 007a 1A60     		str	r2, [r3]
 219:Drivers/STM32L4xx_HAL_Driver/Src/stm32l4xx_hal_dma.c **** 
 220:Drivers/STM32L4xx_HAL_Driver/Src/stm32l4xx_hal_dma.c ****   /* Set request selection */
 221:Drivers/STM32L4xx_HAL_Driver/Src/stm32l4xx_hal_dma.c ****   if(hdma->Init.Direction != DMA_MEMORY_TO_MEMORY)
ARM GAS  /tmp/cccQDy3L.s 			page 7


 119              		.loc 1 221 0
 120 007c 7B68     		ldr	r3, [r7, #4]
 121 007e 9B68     		ldr	r3, [r3, #8]
 122 0080 B3F5804F 		cmp	r3, #16384
 123 0084 00F01581 		beq	.L5
 222:Drivers/STM32L4xx_HAL_Driver/Src/stm32l4xx_hal_dma.c ****   {
 223:Drivers/STM32L4xx_HAL_Driver/Src/stm32l4xx_hal_dma.c ****     /* Write to DMA channel selection register */
 224:Drivers/STM32L4xx_HAL_Driver/Src/stm32l4xx_hal_dma.c ****     if (hdma->Instance == DMA1_Channel1)
 124              		.loc 1 224 0
 125 0088 7B68     		ldr	r3, [r7, #4]
 126 008a 1B68     		ldr	r3, [r3]
 127 008c 904A     		ldr	r2, .L19
 128 008e 9342     		cmp	r3, r2
 129 0090 0DD1     		bne	.L6
 225:Drivers/STM32L4xx_HAL_Driver/Src/stm32l4xx_hal_dma.c ****     {
 226:Drivers/STM32L4xx_HAL_Driver/Src/stm32l4xx_hal_dma.c ****       /*Reset request selection for DMA1 Channel1*/
 227:Drivers/STM32L4xx_HAL_Driver/Src/stm32l4xx_hal_dma.c ****       DMA1_CSELR->CSELR &= ~DMA_CSELR_C1S;
 130              		.loc 1 227 0
 131 0092 904A     		ldr	r2, .L19+4
 132 0094 8F4B     		ldr	r3, .L19+4
 133 0096 1B68     		ldr	r3, [r3]
 134 0098 23F00F03 		bic	r3, r3, #15
 135 009c 1360     		str	r3, [r2]
 228:Drivers/STM32L4xx_HAL_Driver/Src/stm32l4xx_hal_dma.c **** 
 229:Drivers/STM32L4xx_HAL_Driver/Src/stm32l4xx_hal_dma.c ****       /* Configure request selection for DMA1 Channel1 */
 230:Drivers/STM32L4xx_HAL_Driver/Src/stm32l4xx_hal_dma.c ****       DMA1_CSELR->CSELR |= hdma->Init.Request;
 136              		.loc 1 230 0
 137 009e 8D49     		ldr	r1, .L19+4
 138 00a0 8C4B     		ldr	r3, .L19+4
 139 00a2 1A68     		ldr	r2, [r3]
 140 00a4 7B68     		ldr	r3, [r7, #4]
 141 00a6 5B68     		ldr	r3, [r3, #4]
 142 00a8 1343     		orrs	r3, r3, r2
 143 00aa 0B60     		str	r3, [r1]
 144 00ac 01E1     		b	.L5
 145              	.L6:
 231:Drivers/STM32L4xx_HAL_Driver/Src/stm32l4xx_hal_dma.c ****     }
 232:Drivers/STM32L4xx_HAL_Driver/Src/stm32l4xx_hal_dma.c ****     else if (hdma->Instance == DMA1_Channel2)
 146              		.loc 1 232 0
 147 00ae 7B68     		ldr	r3, [r7, #4]
 148 00b0 1B68     		ldr	r3, [r3]
 149 00b2 894A     		ldr	r2, .L19+8
 150 00b4 9342     		cmp	r3, r2
 151 00b6 0ED1     		bne	.L7
 233:Drivers/STM32L4xx_HAL_Driver/Src/stm32l4xx_hal_dma.c ****     {
 234:Drivers/STM32L4xx_HAL_Driver/Src/stm32l4xx_hal_dma.c ****       /*Reset request selection for DMA1 Channel2*/
 235:Drivers/STM32L4xx_HAL_Driver/Src/stm32l4xx_hal_dma.c ****       DMA1_CSELR->CSELR &= ~DMA_CSELR_C2S;
 152              		.loc 1 235 0
 153 00b8 864A     		ldr	r2, .L19+4
 154 00ba 864B     		ldr	r3, .L19+4
 155 00bc 1B68     		ldr	r3, [r3]
 156 00be 23F0F003 		bic	r3, r3, #240
 157 00c2 1360     		str	r3, [r2]
 236:Drivers/STM32L4xx_HAL_Driver/Src/stm32l4xx_hal_dma.c **** 
 237:Drivers/STM32L4xx_HAL_Driver/Src/stm32l4xx_hal_dma.c ****       /* Configure request selection for DMA1 Channel2 */
 238:Drivers/STM32L4xx_HAL_Driver/Src/stm32l4xx_hal_dma.c ****       DMA1_CSELR->CSELR |= (uint32_t)(hdma->Init.Request << 4);
 158              		.loc 1 238 0
ARM GAS  /tmp/cccQDy3L.s 			page 8


 159 00c4 8349     		ldr	r1, .L19+4
 160 00c6 834B     		ldr	r3, .L19+4
 161 00c8 1A68     		ldr	r2, [r3]
 162 00ca 7B68     		ldr	r3, [r7, #4]
 163 00cc 5B68     		ldr	r3, [r3, #4]
 164 00ce 1B01     		lsls	r3, r3, #4
 165 00d0 1343     		orrs	r3, r3, r2
 166 00d2 0B60     		str	r3, [r1]
 167 00d4 EDE0     		b	.L5
 168              	.L7:
 239:Drivers/STM32L4xx_HAL_Driver/Src/stm32l4xx_hal_dma.c ****     }
 240:Drivers/STM32L4xx_HAL_Driver/Src/stm32l4xx_hal_dma.c ****     else if (hdma->Instance == DMA1_Channel3)
 169              		.loc 1 240 0
 170 00d6 7B68     		ldr	r3, [r7, #4]
 171 00d8 1B68     		ldr	r3, [r3]
 172 00da 804A     		ldr	r2, .L19+12
 173 00dc 9342     		cmp	r3, r2
 174 00de 0ED1     		bne	.L8
 241:Drivers/STM32L4xx_HAL_Driver/Src/stm32l4xx_hal_dma.c ****     {
 242:Drivers/STM32L4xx_HAL_Driver/Src/stm32l4xx_hal_dma.c ****       /*Reset request selection for DMA1 Channel3*/
 243:Drivers/STM32L4xx_HAL_Driver/Src/stm32l4xx_hal_dma.c ****       DMA1_CSELR->CSELR &= ~DMA_CSELR_C3S;
 175              		.loc 1 243 0
 176 00e0 7C4A     		ldr	r2, .L19+4
 177 00e2 7C4B     		ldr	r3, .L19+4
 178 00e4 1B68     		ldr	r3, [r3]
 179 00e6 23F47063 		bic	r3, r3, #3840
 180 00ea 1360     		str	r3, [r2]
 244:Drivers/STM32L4xx_HAL_Driver/Src/stm32l4xx_hal_dma.c **** 
 245:Drivers/STM32L4xx_HAL_Driver/Src/stm32l4xx_hal_dma.c ****       /* Configure request selection for DMA1 Channel3 */
 246:Drivers/STM32L4xx_HAL_Driver/Src/stm32l4xx_hal_dma.c ****       DMA1_CSELR->CSELR |= (uint32_t) (hdma->Init.Request << 8);
 181              		.loc 1 246 0
 182 00ec 7949     		ldr	r1, .L19+4
 183 00ee 794B     		ldr	r3, .L19+4
 184 00f0 1A68     		ldr	r2, [r3]
 185 00f2 7B68     		ldr	r3, [r7, #4]
 186 00f4 5B68     		ldr	r3, [r3, #4]
 187 00f6 1B02     		lsls	r3, r3, #8
 188 00f8 1343     		orrs	r3, r3, r2
 189 00fa 0B60     		str	r3, [r1]
 190 00fc D9E0     		b	.L5
 191              	.L8:
 247:Drivers/STM32L4xx_HAL_Driver/Src/stm32l4xx_hal_dma.c ****     }
 248:Drivers/STM32L4xx_HAL_Driver/Src/stm32l4xx_hal_dma.c ****     else if (hdma->Instance == DMA1_Channel4)
 192              		.loc 1 248 0
 193 00fe 7B68     		ldr	r3, [r7, #4]
 194 0100 1B68     		ldr	r3, [r3]
 195 0102 774A     		ldr	r2, .L19+16
 196 0104 9342     		cmp	r3, r2
 197 0106 0ED1     		bne	.L9
 249:Drivers/STM32L4xx_HAL_Driver/Src/stm32l4xx_hal_dma.c ****     {
 250:Drivers/STM32L4xx_HAL_Driver/Src/stm32l4xx_hal_dma.c ****       /*Reset request selection for DMA1 Channel4*/
 251:Drivers/STM32L4xx_HAL_Driver/Src/stm32l4xx_hal_dma.c ****       DMA1_CSELR->CSELR &= ~DMA_CSELR_C4S;
 198              		.loc 1 251 0
 199 0108 724A     		ldr	r2, .L19+4
 200 010a 724B     		ldr	r3, .L19+4
 201 010c 1B68     		ldr	r3, [r3]
 202 010e 23F47043 		bic	r3, r3, #61440
ARM GAS  /tmp/cccQDy3L.s 			page 9


 203 0112 1360     		str	r3, [r2]
 252:Drivers/STM32L4xx_HAL_Driver/Src/stm32l4xx_hal_dma.c **** 
 253:Drivers/STM32L4xx_HAL_Driver/Src/stm32l4xx_hal_dma.c ****       /* Configure request selection for DMA1 Channel4 */
 254:Drivers/STM32L4xx_HAL_Driver/Src/stm32l4xx_hal_dma.c ****       DMA1_CSELR->CSELR |= (uint32_t) (hdma->Init.Request << 12);
 204              		.loc 1 254 0
 205 0114 6F49     		ldr	r1, .L19+4
 206 0116 6F4B     		ldr	r3, .L19+4
 207 0118 1A68     		ldr	r2, [r3]
 208 011a 7B68     		ldr	r3, [r7, #4]
 209 011c 5B68     		ldr	r3, [r3, #4]
 210 011e 1B03     		lsls	r3, r3, #12
 211 0120 1343     		orrs	r3, r3, r2
 212 0122 0B60     		str	r3, [r1]
 213 0124 C5E0     		b	.L5
 214              	.L9:
 255:Drivers/STM32L4xx_HAL_Driver/Src/stm32l4xx_hal_dma.c ****     }
 256:Drivers/STM32L4xx_HAL_Driver/Src/stm32l4xx_hal_dma.c ****     else if (hdma->Instance == DMA1_Channel5)
 215              		.loc 1 256 0
 216 0126 7B68     		ldr	r3, [r7, #4]
 217 0128 1B68     		ldr	r3, [r3]
 218 012a 6E4A     		ldr	r2, .L19+20
 219 012c 9342     		cmp	r3, r2
 220 012e 0ED1     		bne	.L10
 257:Drivers/STM32L4xx_HAL_Driver/Src/stm32l4xx_hal_dma.c ****     {
 258:Drivers/STM32L4xx_HAL_Driver/Src/stm32l4xx_hal_dma.c ****       /*Reset request selection for DMA1 Channel5*/
 259:Drivers/STM32L4xx_HAL_Driver/Src/stm32l4xx_hal_dma.c ****       DMA1_CSELR->CSELR &= ~DMA_CSELR_C5S;
 221              		.loc 1 259 0
 222 0130 684A     		ldr	r2, .L19+4
 223 0132 684B     		ldr	r3, .L19+4
 224 0134 1B68     		ldr	r3, [r3]
 225 0136 23F47023 		bic	r3, r3, #983040
 226 013a 1360     		str	r3, [r2]
 260:Drivers/STM32L4xx_HAL_Driver/Src/stm32l4xx_hal_dma.c **** 
 261:Drivers/STM32L4xx_HAL_Driver/Src/stm32l4xx_hal_dma.c ****       /* Configure request selection for DMA1 Channel5 */
 262:Drivers/STM32L4xx_HAL_Driver/Src/stm32l4xx_hal_dma.c ****       DMA1_CSELR->CSELR |= (uint32_t) (hdma->Init.Request << 16);
 227              		.loc 1 262 0
 228 013c 6549     		ldr	r1, .L19+4
 229 013e 654B     		ldr	r3, .L19+4
 230 0140 1A68     		ldr	r2, [r3]
 231 0142 7B68     		ldr	r3, [r7, #4]
 232 0144 5B68     		ldr	r3, [r3, #4]
 233 0146 1B04     		lsls	r3, r3, #16
 234 0148 1343     		orrs	r3, r3, r2
 235 014a 0B60     		str	r3, [r1]
 236 014c B1E0     		b	.L5
 237              	.L10:
 263:Drivers/STM32L4xx_HAL_Driver/Src/stm32l4xx_hal_dma.c ****     }
 264:Drivers/STM32L4xx_HAL_Driver/Src/stm32l4xx_hal_dma.c ****     else if (hdma->Instance == DMA1_Channel6)
 238              		.loc 1 264 0
 239 014e 7B68     		ldr	r3, [r7, #4]
 240 0150 1B68     		ldr	r3, [r3]
 241 0152 654A     		ldr	r2, .L19+24
 242 0154 9342     		cmp	r3, r2
 243 0156 0ED1     		bne	.L11
 265:Drivers/STM32L4xx_HAL_Driver/Src/stm32l4xx_hal_dma.c ****     {
 266:Drivers/STM32L4xx_HAL_Driver/Src/stm32l4xx_hal_dma.c ****       /*Reset request selection for DMA1 Channel6*/
 267:Drivers/STM32L4xx_HAL_Driver/Src/stm32l4xx_hal_dma.c ****       DMA1_CSELR->CSELR &= ~DMA_CSELR_C6S;
ARM GAS  /tmp/cccQDy3L.s 			page 10


 244              		.loc 1 267 0
 245 0158 5E4A     		ldr	r2, .L19+4
 246 015a 5E4B     		ldr	r3, .L19+4
 247 015c 1B68     		ldr	r3, [r3]
 248 015e 23F47003 		bic	r3, r3, #15728640
 249 0162 1360     		str	r3, [r2]
 268:Drivers/STM32L4xx_HAL_Driver/Src/stm32l4xx_hal_dma.c **** 
 269:Drivers/STM32L4xx_HAL_Driver/Src/stm32l4xx_hal_dma.c ****       /* Configure request selection for DMA1 Channel6 */
 270:Drivers/STM32L4xx_HAL_Driver/Src/stm32l4xx_hal_dma.c ****       DMA1_CSELR->CSELR |= (uint32_t) (hdma->Init.Request << 20);
 250              		.loc 1 270 0
 251 0164 5B49     		ldr	r1, .L19+4
 252 0166 5B4B     		ldr	r3, .L19+4
 253 0168 1A68     		ldr	r2, [r3]
 254 016a 7B68     		ldr	r3, [r7, #4]
 255 016c 5B68     		ldr	r3, [r3, #4]
 256 016e 1B05     		lsls	r3, r3, #20
 257 0170 1343     		orrs	r3, r3, r2
 258 0172 0B60     		str	r3, [r1]
 259 0174 9DE0     		b	.L5
 260              	.L11:
 271:Drivers/STM32L4xx_HAL_Driver/Src/stm32l4xx_hal_dma.c ****     }
 272:Drivers/STM32L4xx_HAL_Driver/Src/stm32l4xx_hal_dma.c ****     else if (hdma->Instance == DMA1_Channel7)
 261              		.loc 1 272 0
 262 0176 7B68     		ldr	r3, [r7, #4]
 263 0178 1B68     		ldr	r3, [r3]
 264 017a 5C4A     		ldr	r2, .L19+28
 265 017c 9342     		cmp	r3, r2
 266 017e 0ED1     		bne	.L12
 273:Drivers/STM32L4xx_HAL_Driver/Src/stm32l4xx_hal_dma.c ****     {
 274:Drivers/STM32L4xx_HAL_Driver/Src/stm32l4xx_hal_dma.c ****       /*Reset request selection for DMA1 Channel7*/
 275:Drivers/STM32L4xx_HAL_Driver/Src/stm32l4xx_hal_dma.c ****       DMA1_CSELR->CSELR &= ~DMA_CSELR_C7S;
 267              		.loc 1 275 0
 268 0180 544A     		ldr	r2, .L19+4
 269 0182 544B     		ldr	r3, .L19+4
 270 0184 1B68     		ldr	r3, [r3]
 271 0186 23F07063 		bic	r3, r3, #251658240
 272 018a 1360     		str	r3, [r2]
 276:Drivers/STM32L4xx_HAL_Driver/Src/stm32l4xx_hal_dma.c **** 
 277:Drivers/STM32L4xx_HAL_Driver/Src/stm32l4xx_hal_dma.c ****       /* Configure request selection for DMA1 Channel7 */
 278:Drivers/STM32L4xx_HAL_Driver/Src/stm32l4xx_hal_dma.c ****       DMA1_CSELR->CSELR |= (uint32_t) (hdma->Init.Request << 24);
 273              		.loc 1 278 0
 274 018c 5149     		ldr	r1, .L19+4
 275 018e 514B     		ldr	r3, .L19+4
 276 0190 1A68     		ldr	r2, [r3]
 277 0192 7B68     		ldr	r3, [r7, #4]
 278 0194 5B68     		ldr	r3, [r3, #4]
 279 0196 1B06     		lsls	r3, r3, #24
 280 0198 1343     		orrs	r3, r3, r2
 281 019a 0B60     		str	r3, [r1]
 282 019c 89E0     		b	.L5
 283              	.L12:
 279:Drivers/STM32L4xx_HAL_Driver/Src/stm32l4xx_hal_dma.c ****     }
 280:Drivers/STM32L4xx_HAL_Driver/Src/stm32l4xx_hal_dma.c ****     else if (hdma->Instance == DMA2_Channel1)
 284              		.loc 1 280 0
 285 019e 7B68     		ldr	r3, [r7, #4]
 286 01a0 1B68     		ldr	r3, [r3]
 287 01a2 534A     		ldr	r2, .L19+32
ARM GAS  /tmp/cccQDy3L.s 			page 11


 288 01a4 9342     		cmp	r3, r2
 289 01a6 0DD1     		bne	.L13
 281:Drivers/STM32L4xx_HAL_Driver/Src/stm32l4xx_hal_dma.c ****     {
 282:Drivers/STM32L4xx_HAL_Driver/Src/stm32l4xx_hal_dma.c ****       /*Reset request selection for DMA2 Channel1*/
 283:Drivers/STM32L4xx_HAL_Driver/Src/stm32l4xx_hal_dma.c ****       DMA2_CSELR->CSELR &= ~DMA_CSELR_C1S;
 290              		.loc 1 283 0
 291 01a8 524A     		ldr	r2, .L19+36
 292 01aa 524B     		ldr	r3, .L19+36
 293 01ac 1B68     		ldr	r3, [r3]
 294 01ae 23F00F03 		bic	r3, r3, #15
 295 01b2 1360     		str	r3, [r2]
 284:Drivers/STM32L4xx_HAL_Driver/Src/stm32l4xx_hal_dma.c **** 
 285:Drivers/STM32L4xx_HAL_Driver/Src/stm32l4xx_hal_dma.c ****       /* Configure request selection for DMA2 Channel1 */
 286:Drivers/STM32L4xx_HAL_Driver/Src/stm32l4xx_hal_dma.c ****       DMA2_CSELR->CSELR |= hdma->Init.Request;
 296              		.loc 1 286 0
 297 01b4 4F49     		ldr	r1, .L19+36
 298 01b6 4F4B     		ldr	r3, .L19+36
 299 01b8 1A68     		ldr	r2, [r3]
 300 01ba 7B68     		ldr	r3, [r7, #4]
 301 01bc 5B68     		ldr	r3, [r3, #4]
 302 01be 1343     		orrs	r3, r3, r2
 303 01c0 0B60     		str	r3, [r1]
 304 01c2 76E0     		b	.L5
 305              	.L13:
 287:Drivers/STM32L4xx_HAL_Driver/Src/stm32l4xx_hal_dma.c ****     }
 288:Drivers/STM32L4xx_HAL_Driver/Src/stm32l4xx_hal_dma.c ****     else if (hdma->Instance == DMA2_Channel2)
 306              		.loc 1 288 0
 307 01c4 7B68     		ldr	r3, [r7, #4]
 308 01c6 1B68     		ldr	r3, [r3]
 309 01c8 4B4A     		ldr	r2, .L19+40
 310 01ca 9342     		cmp	r3, r2
 311 01cc 0ED1     		bne	.L14
 289:Drivers/STM32L4xx_HAL_Driver/Src/stm32l4xx_hal_dma.c ****     {
 290:Drivers/STM32L4xx_HAL_Driver/Src/stm32l4xx_hal_dma.c ****       /*Reset request selection for DMA2 Channel2*/
 291:Drivers/STM32L4xx_HAL_Driver/Src/stm32l4xx_hal_dma.c ****       DMA2_CSELR->CSELR &= ~DMA_CSELR_C2S;
 312              		.loc 1 291 0
 313 01ce 494A     		ldr	r2, .L19+36
 314 01d0 484B     		ldr	r3, .L19+36
 315 01d2 1B68     		ldr	r3, [r3]
 316 01d4 23F0F003 		bic	r3, r3, #240
 317 01d8 1360     		str	r3, [r2]
 292:Drivers/STM32L4xx_HAL_Driver/Src/stm32l4xx_hal_dma.c **** 
 293:Drivers/STM32L4xx_HAL_Driver/Src/stm32l4xx_hal_dma.c ****       /* Configure request selection for DMA2 Channel2 */
 294:Drivers/STM32L4xx_HAL_Driver/Src/stm32l4xx_hal_dma.c ****       DMA2_CSELR->CSELR |= (uint32_t)(hdma->Init.Request << 4);
 318              		.loc 1 294 0
 319 01da 4649     		ldr	r1, .L19+36
 320 01dc 454B     		ldr	r3, .L19+36
 321 01de 1A68     		ldr	r2, [r3]
 322 01e0 7B68     		ldr	r3, [r7, #4]
 323 01e2 5B68     		ldr	r3, [r3, #4]
 324 01e4 1B01     		lsls	r3, r3, #4
 325 01e6 1343     		orrs	r3, r3, r2
 326 01e8 0B60     		str	r3, [r1]
 327 01ea 62E0     		b	.L5
 328              	.L14:
 295:Drivers/STM32L4xx_HAL_Driver/Src/stm32l4xx_hal_dma.c ****     }
 296:Drivers/STM32L4xx_HAL_Driver/Src/stm32l4xx_hal_dma.c ****     else if (hdma->Instance == DMA2_Channel3)
ARM GAS  /tmp/cccQDy3L.s 			page 12


 329              		.loc 1 296 0
 330 01ec 7B68     		ldr	r3, [r7, #4]
 331 01ee 1B68     		ldr	r3, [r3]
 332 01f0 424A     		ldr	r2, .L19+44
 333 01f2 9342     		cmp	r3, r2
 334 01f4 0ED1     		bne	.L15
 297:Drivers/STM32L4xx_HAL_Driver/Src/stm32l4xx_hal_dma.c ****     {
 298:Drivers/STM32L4xx_HAL_Driver/Src/stm32l4xx_hal_dma.c ****       /*Reset request selection for DMA2 Channel3*/
 299:Drivers/STM32L4xx_HAL_Driver/Src/stm32l4xx_hal_dma.c ****       DMA2_CSELR->CSELR &= ~DMA_CSELR_C3S;
 335              		.loc 1 299 0
 336 01f6 3F4A     		ldr	r2, .L19+36
 337 01f8 3E4B     		ldr	r3, .L19+36
 338 01fa 1B68     		ldr	r3, [r3]
 339 01fc 23F47063 		bic	r3, r3, #3840
 340 0200 1360     		str	r3, [r2]
 300:Drivers/STM32L4xx_HAL_Driver/Src/stm32l4xx_hal_dma.c **** 
 301:Drivers/STM32L4xx_HAL_Driver/Src/stm32l4xx_hal_dma.c ****       /* Configure request selection for DMA2 Channel3 */
 302:Drivers/STM32L4xx_HAL_Driver/Src/stm32l4xx_hal_dma.c ****       DMA2_CSELR->CSELR |= (uint32_t) (hdma->Init.Request << 8);
 341              		.loc 1 302 0
 342 0202 3C49     		ldr	r1, .L19+36
 343 0204 3B4B     		ldr	r3, .L19+36
 344 0206 1A68     		ldr	r2, [r3]
 345 0208 7B68     		ldr	r3, [r7, #4]
 346 020a 5B68     		ldr	r3, [r3, #4]
 347 020c 1B02     		lsls	r3, r3, #8
 348 020e 1343     		orrs	r3, r3, r2
 349 0210 0B60     		str	r3, [r1]
 350 0212 4EE0     		b	.L5
 351              	.L15:
 303:Drivers/STM32L4xx_HAL_Driver/Src/stm32l4xx_hal_dma.c ****     }
 304:Drivers/STM32L4xx_HAL_Driver/Src/stm32l4xx_hal_dma.c ****     else if (hdma->Instance == DMA2_Channel4)
 352              		.loc 1 304 0
 353 0214 7B68     		ldr	r3, [r7, #4]
 354 0216 1B68     		ldr	r3, [r3]
 355 0218 394A     		ldr	r2, .L19+48
 356 021a 9342     		cmp	r3, r2
 357 021c 0ED1     		bne	.L16
 305:Drivers/STM32L4xx_HAL_Driver/Src/stm32l4xx_hal_dma.c ****     {
 306:Drivers/STM32L4xx_HAL_Driver/Src/stm32l4xx_hal_dma.c ****       /*Reset request selection for DMA2 Channel4*/
 307:Drivers/STM32L4xx_HAL_Driver/Src/stm32l4xx_hal_dma.c ****       DMA2_CSELR->CSELR &= ~DMA_CSELR_C4S;
 358              		.loc 1 307 0
 359 021e 354A     		ldr	r2, .L19+36
 360 0220 344B     		ldr	r3, .L19+36
 361 0222 1B68     		ldr	r3, [r3]
 362 0224 23F47043 		bic	r3, r3, #61440
 363 0228 1360     		str	r3, [r2]
 308:Drivers/STM32L4xx_HAL_Driver/Src/stm32l4xx_hal_dma.c **** 
 309:Drivers/STM32L4xx_HAL_Driver/Src/stm32l4xx_hal_dma.c ****       /* Configure request selection for DMA2 Channel4 */
 310:Drivers/STM32L4xx_HAL_Driver/Src/stm32l4xx_hal_dma.c ****       DMA2_CSELR->CSELR |= (uint32_t) (hdma->Init.Request << 12);
 364              		.loc 1 310 0
 365 022a 3249     		ldr	r1, .L19+36
 366 022c 314B     		ldr	r3, .L19+36
 367 022e 1A68     		ldr	r2, [r3]
 368 0230 7B68     		ldr	r3, [r7, #4]
 369 0232 5B68     		ldr	r3, [r3, #4]
 370 0234 1B03     		lsls	r3, r3, #12
 371 0236 1343     		orrs	r3, r3, r2
ARM GAS  /tmp/cccQDy3L.s 			page 13


 372 0238 0B60     		str	r3, [r1]
 373 023a 3AE0     		b	.L5
 374              	.L16:
 311:Drivers/STM32L4xx_HAL_Driver/Src/stm32l4xx_hal_dma.c ****     }
 312:Drivers/STM32L4xx_HAL_Driver/Src/stm32l4xx_hal_dma.c ****     else if (hdma->Instance == DMA2_Channel5)
 375              		.loc 1 312 0
 376 023c 7B68     		ldr	r3, [r7, #4]
 377 023e 1B68     		ldr	r3, [r3]
 378 0240 304A     		ldr	r2, .L19+52
 379 0242 9342     		cmp	r3, r2
 380 0244 0ED1     		bne	.L17
 313:Drivers/STM32L4xx_HAL_Driver/Src/stm32l4xx_hal_dma.c ****     {
 314:Drivers/STM32L4xx_HAL_Driver/Src/stm32l4xx_hal_dma.c ****       /*Reset request selection for DMA2 Channel5*/
 315:Drivers/STM32L4xx_HAL_Driver/Src/stm32l4xx_hal_dma.c ****       DMA2_CSELR->CSELR &= ~DMA_CSELR_C5S;
 381              		.loc 1 315 0
 382 0246 2B4A     		ldr	r2, .L19+36
 383 0248 2A4B     		ldr	r3, .L19+36
 384 024a 1B68     		ldr	r3, [r3]
 385 024c 23F47023 		bic	r3, r3, #983040
 386 0250 1360     		str	r3, [r2]
 316:Drivers/STM32L4xx_HAL_Driver/Src/stm32l4xx_hal_dma.c **** 
 317:Drivers/STM32L4xx_HAL_Driver/Src/stm32l4xx_hal_dma.c ****       /* Configure request selection for DMA2 Channel5 */
 318:Drivers/STM32L4xx_HAL_Driver/Src/stm32l4xx_hal_dma.c ****       DMA2_CSELR->CSELR |= (uint32_t) (hdma->Init.Request << 16);
 387              		.loc 1 318 0
 388 0252 2849     		ldr	r1, .L19+36
 389 0254 274B     		ldr	r3, .L19+36
 390 0256 1A68     		ldr	r2, [r3]
 391 0258 7B68     		ldr	r3, [r7, #4]
 392 025a 5B68     		ldr	r3, [r3, #4]
 393 025c 1B04     		lsls	r3, r3, #16
 394 025e 1343     		orrs	r3, r3, r2
 395 0260 0B60     		str	r3, [r1]
 396 0262 26E0     		b	.L5
 397              	.L17:
 319:Drivers/STM32L4xx_HAL_Driver/Src/stm32l4xx_hal_dma.c ****     }
 320:Drivers/STM32L4xx_HAL_Driver/Src/stm32l4xx_hal_dma.c ****     else if (hdma->Instance == DMA2_Channel6)
 398              		.loc 1 320 0
 399 0264 7B68     		ldr	r3, [r7, #4]
 400 0266 1B68     		ldr	r3, [r3]
 401 0268 274A     		ldr	r2, .L19+56
 402 026a 9342     		cmp	r3, r2
 403 026c 0ED1     		bne	.L18
 321:Drivers/STM32L4xx_HAL_Driver/Src/stm32l4xx_hal_dma.c ****     {
 322:Drivers/STM32L4xx_HAL_Driver/Src/stm32l4xx_hal_dma.c ****       /*Reset request selection for DMA2 Channel6*/
 323:Drivers/STM32L4xx_HAL_Driver/Src/stm32l4xx_hal_dma.c ****       DMA2_CSELR->CSELR &= ~DMA_CSELR_C6S;
 404              		.loc 1 323 0
 405 026e 214A     		ldr	r2, .L19+36
 406 0270 204B     		ldr	r3, .L19+36
 407 0272 1B68     		ldr	r3, [r3]
 408 0274 23F47003 		bic	r3, r3, #15728640
 409 0278 1360     		str	r3, [r2]
 324:Drivers/STM32L4xx_HAL_Driver/Src/stm32l4xx_hal_dma.c **** 
 325:Drivers/STM32L4xx_HAL_Driver/Src/stm32l4xx_hal_dma.c ****       /* Configure request selection for DMA2 Channel6 */
 326:Drivers/STM32L4xx_HAL_Driver/Src/stm32l4xx_hal_dma.c ****       DMA2_CSELR->CSELR |= (uint32_t) (hdma->Init.Request << 20);
 410              		.loc 1 326 0
 411 027a 1E49     		ldr	r1, .L19+36
 412 027c 1D4B     		ldr	r3, .L19+36
ARM GAS  /tmp/cccQDy3L.s 			page 14


 413 027e 1A68     		ldr	r2, [r3]
 414 0280 7B68     		ldr	r3, [r7, #4]
 415 0282 5B68     		ldr	r3, [r3, #4]
 416 0284 1B05     		lsls	r3, r3, #20
 417 0286 1343     		orrs	r3, r3, r2
 418 0288 0B60     		str	r3, [r1]
 419 028a 12E0     		b	.L5
 420              	.L18:
 327:Drivers/STM32L4xx_HAL_Driver/Src/stm32l4xx_hal_dma.c ****     }
 328:Drivers/STM32L4xx_HAL_Driver/Src/stm32l4xx_hal_dma.c ****     else if (hdma->Instance == DMA2_Channel7)
 421              		.loc 1 328 0
 422 028c 7B68     		ldr	r3, [r7, #4]
 423 028e 1B68     		ldr	r3, [r3]
 424 0290 1E4A     		ldr	r2, .L19+60
 425 0292 9342     		cmp	r3, r2
 426 0294 0DD1     		bne	.L5
 329:Drivers/STM32L4xx_HAL_Driver/Src/stm32l4xx_hal_dma.c ****     {
 330:Drivers/STM32L4xx_HAL_Driver/Src/stm32l4xx_hal_dma.c ****       /*Reset request selection for DMA2 Channel7*/
 331:Drivers/STM32L4xx_HAL_Driver/Src/stm32l4xx_hal_dma.c ****       DMA2_CSELR->CSELR &= ~DMA_CSELR_C7S;
 427              		.loc 1 331 0
 428 0296 174A     		ldr	r2, .L19+36
 429 0298 164B     		ldr	r3, .L19+36
 430 029a 1B68     		ldr	r3, [r3]
 431 029c 23F07063 		bic	r3, r3, #251658240
 432 02a0 1360     		str	r3, [r2]
 332:Drivers/STM32L4xx_HAL_Driver/Src/stm32l4xx_hal_dma.c **** 
 333:Drivers/STM32L4xx_HAL_Driver/Src/stm32l4xx_hal_dma.c ****       /* Configure request selection for DMA2 Channel7 */
 334:Drivers/STM32L4xx_HAL_Driver/Src/stm32l4xx_hal_dma.c ****       DMA2_CSELR->CSELR |= (uint32_t) (hdma->Init.Request << 24);
 433              		.loc 1 334 0
 434 02a2 1449     		ldr	r1, .L19+36
 435 02a4 134B     		ldr	r3, .L19+36
 436 02a6 1A68     		ldr	r2, [r3]
 437 02a8 7B68     		ldr	r3, [r7, #4]
 438 02aa 5B68     		ldr	r3, [r3, #4]
 439 02ac 1B06     		lsls	r3, r3, #24
 440 02ae 1343     		orrs	r3, r3, r2
 441 02b0 0B60     		str	r3, [r1]
 442              	.L5:
 335:Drivers/STM32L4xx_HAL_Driver/Src/stm32l4xx_hal_dma.c ****     }
 336:Drivers/STM32L4xx_HAL_Driver/Src/stm32l4xx_hal_dma.c ****   }
 337:Drivers/STM32L4xx_HAL_Driver/Src/stm32l4xx_hal_dma.c **** 
 338:Drivers/STM32L4xx_HAL_Driver/Src/stm32l4xx_hal_dma.c ****   /* Initialize the error code */
 339:Drivers/STM32L4xx_HAL_Driver/Src/stm32l4xx_hal_dma.c ****   hdma->ErrorCode = HAL_DMA_ERROR_NONE;
 443              		.loc 1 339 0
 444 02b2 7B68     		ldr	r3, [r7, #4]
 445 02b4 0022     		movs	r2, #0
 446 02b6 9A63     		str	r2, [r3, #56]
 340:Drivers/STM32L4xx_HAL_Driver/Src/stm32l4xx_hal_dma.c **** 
 341:Drivers/STM32L4xx_HAL_Driver/Src/stm32l4xx_hal_dma.c ****   /* Initialize the DMA state*/
 342:Drivers/STM32L4xx_HAL_Driver/Src/stm32l4xx_hal_dma.c ****   hdma->State  = HAL_DMA_STATE_READY;
 447              		.loc 1 342 0
 448 02b8 7B68     		ldr	r3, [r7, #4]
 449 02ba 0122     		movs	r2, #1
 450 02bc 83F82520 		strb	r2, [r3, #37]
 343:Drivers/STM32L4xx_HAL_Driver/Src/stm32l4xx_hal_dma.c **** 
 344:Drivers/STM32L4xx_HAL_Driver/Src/stm32l4xx_hal_dma.c ****   return HAL_OK;
 451              		.loc 1 344 0
ARM GAS  /tmp/cccQDy3L.s 			page 15


 452 02c0 0023     		movs	r3, #0
 453              	.L3:
 345:Drivers/STM32L4xx_HAL_Driver/Src/stm32l4xx_hal_dma.c **** }
 454              		.loc 1 345 0
 455 02c2 1846     		mov	r0, r3
 456 02c4 1437     		adds	r7, r7, #20
 457              	.LCFI3:
 458              		.cfi_def_cfa_offset 4
 459 02c6 BD46     		mov	sp, r7
 460              	.LCFI4:
 461              		.cfi_def_cfa_register 13
 462              		@ sp needed
 463 02c8 5DF8047B 		ldr	r7, [sp], #4
 464              	.LCFI5:
 465              		.cfi_restore 7
 466              		.cfi_def_cfa_offset 0
 467 02cc 7047     		bx	lr
 468              	.L20:
 469 02ce 00BF     		.align	2
 470              	.L19:
 471 02d0 08000240 		.word	1073872904
 472 02d4 A8000240 		.word	1073873064
 473 02d8 1C000240 		.word	1073872924
 474 02dc 30000240 		.word	1073872944
 475 02e0 44000240 		.word	1073872964
 476 02e4 58000240 		.word	1073872984
 477 02e8 6C000240 		.word	1073873004
 478 02ec 80000240 		.word	1073873024
 479 02f0 08040240 		.word	1073873928
 480 02f4 A8040240 		.word	1073874088
 481 02f8 1C040240 		.word	1073873948
 482 02fc 30040240 		.word	1073873968
 483 0300 44040240 		.word	1073873988
 484 0304 58040240 		.word	1073874008
 485 0308 6C040240 		.word	1073874028
 486 030c 80040240 		.word	1073874048
 487              		.cfi_endproc
 488              	.LFE125:
 490              		.section	.text.HAL_DMA_DeInit,"ax",%progbits
 491              		.align	2
 492              		.global	HAL_DMA_DeInit
 493              		.thumb
 494              		.thumb_func
 496              	HAL_DMA_DeInit:
 497              	.LFB126:
 346:Drivers/STM32L4xx_HAL_Driver/Src/stm32l4xx_hal_dma.c **** 
 347:Drivers/STM32L4xx_HAL_Driver/Src/stm32l4xx_hal_dma.c **** /**
 348:Drivers/STM32L4xx_HAL_Driver/Src/stm32l4xx_hal_dma.c ****   * @brief  DeInitialize the DMA peripheral.
 349:Drivers/STM32L4xx_HAL_Driver/Src/stm32l4xx_hal_dma.c ****   * @param  hdma: pointer to a DMA_HandleTypeDef structure that contains
 350:Drivers/STM32L4xx_HAL_Driver/Src/stm32l4xx_hal_dma.c ****   *               the configuration information for the specified DMA Channel.
 351:Drivers/STM32L4xx_HAL_Driver/Src/stm32l4xx_hal_dma.c ****   * @retval HAL status
 352:Drivers/STM32L4xx_HAL_Driver/Src/stm32l4xx_hal_dma.c ****   */
 353:Drivers/STM32L4xx_HAL_Driver/Src/stm32l4xx_hal_dma.c **** HAL_StatusTypeDef HAL_DMA_DeInit(DMA_HandleTypeDef *hdma)
 354:Drivers/STM32L4xx_HAL_Driver/Src/stm32l4xx_hal_dma.c **** {
 498              		.loc 1 354 0
 499              		.cfi_startproc
 500              		@ args = 0, pretend = 0, frame = 8
ARM GAS  /tmp/cccQDy3L.s 			page 16


 501              		@ frame_needed = 1, uses_anonymous_args = 0
 502              		@ link register save eliminated.
 503 0000 80B4     		push	{r7}
 504              	.LCFI6:
 505              		.cfi_def_cfa_offset 4
 506              		.cfi_offset 7, -4
 507 0002 83B0     		sub	sp, sp, #12
 508              	.LCFI7:
 509              		.cfi_def_cfa_offset 16
 510 0004 00AF     		add	r7, sp, #0
 511              	.LCFI8:
 512              		.cfi_def_cfa_register 7
 513 0006 7860     		str	r0, [r7, #4]
 355:Drivers/STM32L4xx_HAL_Driver/Src/stm32l4xx_hal_dma.c ****   /* Check the DMA handle allocation */
 356:Drivers/STM32L4xx_HAL_Driver/Src/stm32l4xx_hal_dma.c ****   if(hdma == NULL)
 514              		.loc 1 356 0
 515 0008 7B68     		ldr	r3, [r7, #4]
 516 000a 002B     		cmp	r3, #0
 517 000c 02D1     		bne	.L22
 357:Drivers/STM32L4xx_HAL_Driver/Src/stm32l4xx_hal_dma.c ****   {
 358:Drivers/STM32L4xx_HAL_Driver/Src/stm32l4xx_hal_dma.c ****     return HAL_ERROR;
 518              		.loc 1 358 0
 519 000e 0123     		movs	r3, #1
 520 0010 00F0C7BC 		b	.L23
 521              	.L22:
 359:Drivers/STM32L4xx_HAL_Driver/Src/stm32l4xx_hal_dma.c ****   }
 360:Drivers/STM32L4xx_HAL_Driver/Src/stm32l4xx_hal_dma.c ****   
 361:Drivers/STM32L4xx_HAL_Driver/Src/stm32l4xx_hal_dma.c ****   /* Check the parameters */
 362:Drivers/STM32L4xx_HAL_Driver/Src/stm32l4xx_hal_dma.c ****   assert_param(IS_DMA_ALL_INSTANCE(hdma->Instance));
 363:Drivers/STM32L4xx_HAL_Driver/Src/stm32l4xx_hal_dma.c **** 
 364:Drivers/STM32L4xx_HAL_Driver/Src/stm32l4xx_hal_dma.c ****   /* Check the DMA peripheral state */
 365:Drivers/STM32L4xx_HAL_Driver/Src/stm32l4xx_hal_dma.c ****   if(hdma->State == HAL_DMA_STATE_BUSY)
 522              		.loc 1 365 0
 523 0014 7B68     		ldr	r3, [r7, #4]
 524 0016 93F82530 		ldrb	r3, [r3, #37]
 525 001a DBB2     		uxtb	r3, r3
 526 001c 022B     		cmp	r3, #2
 527 001e 02D1     		bne	.L24
 366:Drivers/STM32L4xx_HAL_Driver/Src/stm32l4xx_hal_dma.c ****   {
 367:Drivers/STM32L4xx_HAL_Driver/Src/stm32l4xx_hal_dma.c ****      return HAL_ERROR;
 528              		.loc 1 367 0
 529 0020 0123     		movs	r3, #1
 530 0022 00F0BEBC 		b	.L23
 531              	.L24:
 368:Drivers/STM32L4xx_HAL_Driver/Src/stm32l4xx_hal_dma.c ****   }
 369:Drivers/STM32L4xx_HAL_Driver/Src/stm32l4xx_hal_dma.c **** 
 370:Drivers/STM32L4xx_HAL_Driver/Src/stm32l4xx_hal_dma.c ****   /* Disable the selected DMA Channelx */
 371:Drivers/STM32L4xx_HAL_Driver/Src/stm32l4xx_hal_dma.c ****   __HAL_DMA_DISABLE(hdma);
 532              		.loc 1 371 0
 533 0026 7B68     		ldr	r3, [r7, #4]
 534 0028 1B68     		ldr	r3, [r3]
 535 002a 7A68     		ldr	r2, [r7, #4]
 536 002c 1268     		ldr	r2, [r2]
 537 002e 1268     		ldr	r2, [r2]
 538 0030 22F00102 		bic	r2, r2, #1
 539 0034 1A60     		str	r2, [r3]
 372:Drivers/STM32L4xx_HAL_Driver/Src/stm32l4xx_hal_dma.c **** 
ARM GAS  /tmp/cccQDy3L.s 			page 17


 373:Drivers/STM32L4xx_HAL_Driver/Src/stm32l4xx_hal_dma.c ****   /* Reset DMA Channel control register */
 374:Drivers/STM32L4xx_HAL_Driver/Src/stm32l4xx_hal_dma.c ****   hdma->Instance->CCR  = 0;
 540              		.loc 1 374 0
 541 0036 7B68     		ldr	r3, [r7, #4]
 542 0038 1B68     		ldr	r3, [r3]
 543 003a 0022     		movs	r2, #0
 544 003c 1A60     		str	r2, [r3]
 375:Drivers/STM32L4xx_HAL_Driver/Src/stm32l4xx_hal_dma.c **** 
 376:Drivers/STM32L4xx_HAL_Driver/Src/stm32l4xx_hal_dma.c ****   /* Reset DMA Channel Number of Data to Transfer register */
 377:Drivers/STM32L4xx_HAL_Driver/Src/stm32l4xx_hal_dma.c ****   hdma->Instance->CNDTR = 0;
 545              		.loc 1 377 0
 546 003e 7B68     		ldr	r3, [r7, #4]
 547 0040 1B68     		ldr	r3, [r3]
 548 0042 0022     		movs	r2, #0
 549 0044 5A60     		str	r2, [r3, #4]
 378:Drivers/STM32L4xx_HAL_Driver/Src/stm32l4xx_hal_dma.c **** 
 379:Drivers/STM32L4xx_HAL_Driver/Src/stm32l4xx_hal_dma.c ****   /* Reset DMA Channel peripheral address register */
 380:Drivers/STM32L4xx_HAL_Driver/Src/stm32l4xx_hal_dma.c ****   hdma->Instance->CPAR  = 0;
 550              		.loc 1 380 0
 551 0046 7B68     		ldr	r3, [r7, #4]
 552 0048 1B68     		ldr	r3, [r3]
 553 004a 0022     		movs	r2, #0
 554 004c 9A60     		str	r2, [r3, #8]
 381:Drivers/STM32L4xx_HAL_Driver/Src/stm32l4xx_hal_dma.c **** 
 382:Drivers/STM32L4xx_HAL_Driver/Src/stm32l4xx_hal_dma.c ****   /* Reset DMA Channel memory address register */
 383:Drivers/STM32L4xx_HAL_Driver/Src/stm32l4xx_hal_dma.c ****   hdma->Instance->CMAR = 0;
 555              		.loc 1 383 0
 556 004e 7B68     		ldr	r3, [r7, #4]
 557 0050 1B68     		ldr	r3, [r3]
 558 0052 0022     		movs	r2, #0
 559 0054 DA60     		str	r2, [r3, #12]
 384:Drivers/STM32L4xx_HAL_Driver/Src/stm32l4xx_hal_dma.c **** 
 385:Drivers/STM32L4xx_HAL_Driver/Src/stm32l4xx_hal_dma.c ****   /* Clear all flags */
 386:Drivers/STM32L4xx_HAL_Driver/Src/stm32l4xx_hal_dma.c ****   __HAL_DMA_CLEAR_FLAG(hdma, __HAL_DMA_GET_GI_FLAG_INDEX(hdma));
 560              		.loc 1 386 0
 561 0056 7B68     		ldr	r3, [r7, #4]
 562 0058 1B68     		ldr	r3, [r3]
 563 005a 1A46     		mov	r2, r3
 564 005c 9E4B     		ldr	r3, .L239
 565 005e 9A42     		cmp	r2, r3
 566 0060 6FD9     		bls	.L25
 567              		.loc 1 386 0 is_stmt 0 discriminator 1
 568 0062 9E49     		ldr	r1, .L239+4
 569 0064 9D4B     		ldr	r3, .L239+4
 570 0066 5A68     		ldr	r2, [r3, #4]
 571 0068 7B68     		ldr	r3, [r7, #4]
 572 006a 1B68     		ldr	r3, [r3]
 573 006c 1846     		mov	r0, r3
 574 006e 9C4B     		ldr	r3, .L239+8
 575 0070 9842     		cmp	r0, r3
 576 0072 62D0     		beq	.L26
 577              		.loc 1 386 0 discriminator 3
 578 0074 7B68     		ldr	r3, [r7, #4]
 579 0076 1B68     		ldr	r3, [r3]
 580 0078 1846     		mov	r0, r3
 581 007a 9A4B     		ldr	r3, .L239+12
 582 007c 9842     		cmp	r0, r3
ARM GAS  /tmp/cccQDy3L.s 			page 18


 583 007e 5AD0     		beq	.L27
 584              		.loc 1 386 0 discriminator 5
 585 0080 7B68     		ldr	r3, [r7, #4]
 586 0082 1B68     		ldr	r3, [r3]
 587 0084 1846     		mov	r0, r3
 588 0086 984B     		ldr	r3, .L239+16
 589 0088 9842     		cmp	r0, r3
 590 008a 52D0     		beq	.L28
 591              		.loc 1 386 0 discriminator 7
 592 008c 7B68     		ldr	r3, [r7, #4]
 593 008e 1B68     		ldr	r3, [r3]
 594 0090 1846     		mov	r0, r3
 595 0092 964B     		ldr	r3, .L239+20
 596 0094 9842     		cmp	r0, r3
 597 0096 4AD0     		beq	.L29
 598              		.loc 1 386 0 discriminator 9
 599 0098 7B68     		ldr	r3, [r7, #4]
 600 009a 1B68     		ldr	r3, [r3]
 601 009c 1846     		mov	r0, r3
 602 009e 944B     		ldr	r3, .L239+24
 603 00a0 9842     		cmp	r0, r3
 604 00a2 41D0     		beq	.L30
 605              		.loc 1 386 0 discriminator 11
 606 00a4 7B68     		ldr	r3, [r7, #4]
 607 00a6 1B68     		ldr	r3, [r3]
 608 00a8 1846     		mov	r0, r3
 609 00aa 924B     		ldr	r3, .L239+28
 610 00ac 9842     		cmp	r0, r3
 611 00ae 38D0     		beq	.L31
 612              		.loc 1 386 0 discriminator 13
 613 00b0 7B68     		ldr	r3, [r7, #4]
 614 00b2 1B68     		ldr	r3, [r3]
 615 00b4 1846     		mov	r0, r3
 616 00b6 904B     		ldr	r3, .L239+32
 617 00b8 9842     		cmp	r0, r3
 618 00ba 2FD0     		beq	.L32
 619              		.loc 1 386 0 discriminator 15
 620 00bc 7B68     		ldr	r3, [r7, #4]
 621 00be 1B68     		ldr	r3, [r3]
 622 00c0 1846     		mov	r0, r3
 623 00c2 8E4B     		ldr	r3, .L239+36
 624 00c4 9842     		cmp	r0, r3
 625 00c6 26D0     		beq	.L33
 626              		.loc 1 386 0 discriminator 17
 627 00c8 7B68     		ldr	r3, [r7, #4]
 628 00ca 1B68     		ldr	r3, [r3]
 629 00cc 1846     		mov	r0, r3
 630 00ce 8C4B     		ldr	r3, .L239+40
 631 00d0 9842     		cmp	r0, r3
 632 00d2 1DD0     		beq	.L34
 633              		.loc 1 386 0 discriminator 19
 634 00d4 7B68     		ldr	r3, [r7, #4]
 635 00d6 1B68     		ldr	r3, [r3]
 636 00d8 1846     		mov	r0, r3
 637 00da 8A4B     		ldr	r3, .L239+44
 638 00dc 9842     		cmp	r0, r3
 639 00de 14D0     		beq	.L35
ARM GAS  /tmp/cccQDy3L.s 			page 19


 640              		.loc 1 386 0 discriminator 21
 641 00e0 7B68     		ldr	r3, [r7, #4]
 642 00e2 1B68     		ldr	r3, [r3]
 643 00e4 1846     		mov	r0, r3
 644 00e6 884B     		ldr	r3, .L239+48
 645 00e8 9842     		cmp	r0, r3
 646 00ea 0BD0     		beq	.L36
 647              		.loc 1 386 0 discriminator 23
 648 00ec 7B68     		ldr	r3, [r7, #4]
 649 00ee 1B68     		ldr	r3, [r3]
 650 00f0 1846     		mov	r0, r3
 651 00f2 864B     		ldr	r3, .L239+52
 652 00f4 9842     		cmp	r0, r3
 653 00f6 02D1     		bne	.L37
 654              		.loc 1 386 0 discriminator 25
 655 00f8 4FF48013 		mov	r3, #1048576
 656 00fc 1EE0     		b	.L49
 657              	.L37:
 658              		.loc 1 386 0 discriminator 26
 659 00fe 4FF08073 		mov	r3, #16777216
 660 0102 1BE0     		b	.L49
 661              	.L36:
 662              		.loc 1 386 0 discriminator 24
 663 0104 4FF48013 		mov	r3, #1048576
 664 0108 18E0     		b	.L49
 665              	.L35:
 666              		.loc 1 386 0 discriminator 22
 667 010a 4FF48033 		mov	r3, #65536
 668 010e 15E0     		b	.L49
 669              	.L34:
 670              		.loc 1 386 0 discriminator 20
 671 0110 4FF48033 		mov	r3, #65536
 672 0114 12E0     		b	.L49
 673              	.L33:
 674              		.loc 1 386 0 discriminator 18
 675 0116 4FF48053 		mov	r3, #4096
 676 011a 0FE0     		b	.L49
 677              	.L32:
 678              		.loc 1 386 0 discriminator 16
 679 011c 4FF48053 		mov	r3, #4096
 680 0120 0CE0     		b	.L49
 681              	.L31:
 682              		.loc 1 386 0 discriminator 14
 683 0122 4FF48073 		mov	r3, #256
 684 0126 09E0     		b	.L49
 685              	.L30:
 686              		.loc 1 386 0 discriminator 12
 687 0128 4FF48073 		mov	r3, #256
 688 012c 06E0     		b	.L49
 689              	.L29:
 690              		.loc 1 386 0 discriminator 10
 691 012e 1023     		movs	r3, #16
 692 0130 04E0     		b	.L49
 693              	.L28:
 694              		.loc 1 386 0 discriminator 8
 695 0132 1023     		movs	r3, #16
 696 0134 02E0     		b	.L49
ARM GAS  /tmp/cccQDy3L.s 			page 20


 697              	.L27:
 698              		.loc 1 386 0 discriminator 6
 699 0136 0123     		movs	r3, #1
 700 0138 00E0     		b	.L49
 701              	.L26:
 702              		.loc 1 386 0 discriminator 4
 703 013a 0123     		movs	r3, #1
 704              	.L49:
 705              		.loc 1 386 0 discriminator 50
 706 013c 1343     		orrs	r3, r3, r2
 707 013e 4B60     		str	r3, [r1, #4]
 708 0140 6EE0     		b	.L50
 709              	.L25:
 710              		.loc 1 386 0 discriminator 2
 711 0142 7349     		ldr	r1, .L239+56
 712 0144 724B     		ldr	r3, .L239+56
 713 0146 5A68     		ldr	r2, [r3, #4]
 714 0148 7B68     		ldr	r3, [r7, #4]
 715 014a 1B68     		ldr	r3, [r3]
 716 014c 1846     		mov	r0, r3
 717 014e 644B     		ldr	r3, .L239+8
 718 0150 9842     		cmp	r0, r3
 719 0152 62D0     		beq	.L51
 720              		.loc 1 386 0 discriminator 51
 721 0154 7B68     		ldr	r3, [r7, #4]
 722 0156 1B68     		ldr	r3, [r3]
 723 0158 1846     		mov	r0, r3
 724 015a 624B     		ldr	r3, .L239+12
 725 015c 9842     		cmp	r0, r3
 726 015e 5AD0     		beq	.L52
 727              		.loc 1 386 0 discriminator 53
 728 0160 7B68     		ldr	r3, [r7, #4]
 729 0162 1B68     		ldr	r3, [r3]
 730 0164 1846     		mov	r0, r3
 731 0166 604B     		ldr	r3, .L239+16
 732 0168 9842     		cmp	r0, r3
 733 016a 52D0     		beq	.L53
 734              		.loc 1 386 0 discriminator 55
 735 016c 7B68     		ldr	r3, [r7, #4]
 736 016e 1B68     		ldr	r3, [r3]
 737 0170 1846     		mov	r0, r3
 738 0172 5E4B     		ldr	r3, .L239+20
 739 0174 9842     		cmp	r0, r3
 740 0176 4AD0     		beq	.L54
 741              		.loc 1 386 0 discriminator 57
 742 0178 7B68     		ldr	r3, [r7, #4]
 743 017a 1B68     		ldr	r3, [r3]
 744 017c 1846     		mov	r0, r3
 745 017e 5C4B     		ldr	r3, .L239+24
 746 0180 9842     		cmp	r0, r3
 747 0182 41D0     		beq	.L55
 748              		.loc 1 386 0 discriminator 59
 749 0184 7B68     		ldr	r3, [r7, #4]
 750 0186 1B68     		ldr	r3, [r3]
 751 0188 1846     		mov	r0, r3
 752 018a 5A4B     		ldr	r3, .L239+28
 753 018c 9842     		cmp	r0, r3
ARM GAS  /tmp/cccQDy3L.s 			page 21


 754 018e 38D0     		beq	.L56
 755              		.loc 1 386 0 discriminator 61
 756 0190 7B68     		ldr	r3, [r7, #4]
 757 0192 1B68     		ldr	r3, [r3]
 758 0194 1846     		mov	r0, r3
 759 0196 584B     		ldr	r3, .L239+32
 760 0198 9842     		cmp	r0, r3
 761 019a 2FD0     		beq	.L57
 762              		.loc 1 386 0 discriminator 63
 763 019c 7B68     		ldr	r3, [r7, #4]
 764 019e 1B68     		ldr	r3, [r3]
 765 01a0 1846     		mov	r0, r3
 766 01a2 564B     		ldr	r3, .L239+36
 767 01a4 9842     		cmp	r0, r3
 768 01a6 26D0     		beq	.L58
 769              		.loc 1 386 0 discriminator 65
 770 01a8 7B68     		ldr	r3, [r7, #4]
 771 01aa 1B68     		ldr	r3, [r3]
 772 01ac 1846     		mov	r0, r3
 773 01ae 544B     		ldr	r3, .L239+40
 774 01b0 9842     		cmp	r0, r3
 775 01b2 1DD0     		beq	.L59
 776              		.loc 1 386 0 discriminator 67
 777 01b4 7B68     		ldr	r3, [r7, #4]
 778 01b6 1B68     		ldr	r3, [r3]
 779 01b8 1846     		mov	r0, r3
 780 01ba 524B     		ldr	r3, .L239+44
 781 01bc 9842     		cmp	r0, r3
 782 01be 14D0     		beq	.L60
 783              		.loc 1 386 0 discriminator 69
 784 01c0 7B68     		ldr	r3, [r7, #4]
 785 01c2 1B68     		ldr	r3, [r3]
 786 01c4 1846     		mov	r0, r3
 787 01c6 504B     		ldr	r3, .L239+48
 788 01c8 9842     		cmp	r0, r3
 789 01ca 0BD0     		beq	.L61
 790              		.loc 1 386 0 discriminator 71
 791 01cc 7B68     		ldr	r3, [r7, #4]
 792 01ce 1B68     		ldr	r3, [r3]
 793 01d0 1846     		mov	r0, r3
 794 01d2 4E4B     		ldr	r3, .L239+52
 795 01d4 9842     		cmp	r0, r3
 796 01d6 02D1     		bne	.L62
 797              		.loc 1 386 0 discriminator 73
 798 01d8 4FF48013 		mov	r3, #1048576
 799 01dc 1EE0     		b	.L74
 800              	.L62:
 801              		.loc 1 386 0 discriminator 74
 802 01de 4FF08073 		mov	r3, #16777216
 803 01e2 1BE0     		b	.L74
 804              	.L61:
 805              		.loc 1 386 0 discriminator 72
 806 01e4 4FF48013 		mov	r3, #1048576
 807 01e8 18E0     		b	.L74
 808              	.L60:
 809              		.loc 1 386 0 discriminator 70
 810 01ea 4FF48033 		mov	r3, #65536
ARM GAS  /tmp/cccQDy3L.s 			page 22


 811 01ee 15E0     		b	.L74
 812              	.L59:
 813              		.loc 1 386 0 discriminator 68
 814 01f0 4FF48033 		mov	r3, #65536
 815 01f4 12E0     		b	.L74
 816              	.L58:
 817              		.loc 1 386 0 discriminator 66
 818 01f6 4FF48053 		mov	r3, #4096
 819 01fa 0FE0     		b	.L74
 820              	.L57:
 821              		.loc 1 386 0 discriminator 64
 822 01fc 4FF48053 		mov	r3, #4096
 823 0200 0CE0     		b	.L74
 824              	.L56:
 825              		.loc 1 386 0 discriminator 62
 826 0202 4FF48073 		mov	r3, #256
 827 0206 09E0     		b	.L74
 828              	.L55:
 829              		.loc 1 386 0 discriminator 60
 830 0208 4FF48073 		mov	r3, #256
 831 020c 06E0     		b	.L74
 832              	.L54:
 833              		.loc 1 386 0 discriminator 58
 834 020e 1023     		movs	r3, #16
 835 0210 04E0     		b	.L74
 836              	.L53:
 837              		.loc 1 386 0 discriminator 56
 838 0212 1023     		movs	r3, #16
 839 0214 02E0     		b	.L74
 840              	.L52:
 841              		.loc 1 386 0 discriminator 54
 842 0216 0123     		movs	r3, #1
 843 0218 00E0     		b	.L74
 844              	.L51:
 845              		.loc 1 386 0 discriminator 52
 846 021a 0123     		movs	r3, #1
 847              	.L74:
 848              		.loc 1 386 0 discriminator 98
 849 021c 1343     		orrs	r3, r3, r2
 850 021e 4B60     		str	r3, [r1, #4]
 851              	.L50:
 387:Drivers/STM32L4xx_HAL_Driver/Src/stm32l4xx_hal_dma.c ****   __HAL_DMA_CLEAR_FLAG(hdma, __HAL_DMA_GET_TC_FLAG_INDEX(hdma));
 852              		.loc 1 387 0 is_stmt 1
 853 0220 7B68     		ldr	r3, [r7, #4]
 854 0222 1B68     		ldr	r3, [r3]
 855 0224 1A46     		mov	r2, r3
 856 0226 2C4B     		ldr	r3, .L239
 857 0228 9A42     		cmp	r2, r3
 858 022a 40F28F80 		bls	.L75
 859              		.loc 1 387 0 is_stmt 0 discriminator 1
 860 022e 2B49     		ldr	r1, .L239+4
 861 0230 2A4B     		ldr	r3, .L239+4
 862 0232 5A68     		ldr	r2, [r3, #4]
 863 0234 7B68     		ldr	r3, [r7, #4]
 864 0236 1B68     		ldr	r3, [r3]
 865 0238 1846     		mov	r0, r3
 866 023a 294B     		ldr	r3, .L239+8
ARM GAS  /tmp/cccQDy3L.s 			page 23


 867 023c 9842     		cmp	r0, r3
 868 023e 00F08180 		beq	.L76
 869              		.loc 1 387 0 discriminator 3
 870 0242 7B68     		ldr	r3, [r7, #4]
 871 0244 1B68     		ldr	r3, [r3]
 872 0246 1846     		mov	r0, r3
 873 0248 264B     		ldr	r3, .L239+12
 874 024a 9842     		cmp	r0, r3
 875 024c 78D0     		beq	.L77
 876              		.loc 1 387 0 discriminator 5
 877 024e 7B68     		ldr	r3, [r7, #4]
 878 0250 1B68     		ldr	r3, [r3]
 879 0252 1846     		mov	r0, r3
 880 0254 244B     		ldr	r3, .L239+16
 881 0256 9842     		cmp	r0, r3
 882 0258 70D0     		beq	.L78
 883              		.loc 1 387 0 discriminator 7
 884 025a 7B68     		ldr	r3, [r7, #4]
 885 025c 1B68     		ldr	r3, [r3]
 886 025e 1846     		mov	r0, r3
 887 0260 224B     		ldr	r3, .L239+20
 888 0262 9842     		cmp	r0, r3
 889 0264 68D0     		beq	.L79
 890              		.loc 1 387 0 discriminator 9
 891 0266 7B68     		ldr	r3, [r7, #4]
 892 0268 1B68     		ldr	r3, [r3]
 893 026a 1846     		mov	r0, r3
 894 026c 204B     		ldr	r3, .L239+24
 895 026e 9842     		cmp	r0, r3
 896 0270 5FD0     		beq	.L80
 897              		.loc 1 387 0 discriminator 11
 898 0272 7B68     		ldr	r3, [r7, #4]
 899 0274 1B68     		ldr	r3, [r3]
 900 0276 1846     		mov	r0, r3
 901 0278 1E4B     		ldr	r3, .L239+28
 902 027a 9842     		cmp	r0, r3
 903 027c 56D0     		beq	.L81
 904              		.loc 1 387 0 discriminator 13
 905 027e 7B68     		ldr	r3, [r7, #4]
 906 0280 1B68     		ldr	r3, [r3]
 907 0282 1846     		mov	r0, r3
 908 0284 1C4B     		ldr	r3, .L239+32
 909 0286 9842     		cmp	r0, r3
 910 0288 4DD0     		beq	.L82
 911              		.loc 1 387 0 discriminator 15
 912 028a 7B68     		ldr	r3, [r7, #4]
 913 028c 1B68     		ldr	r3, [r3]
 914 028e 1846     		mov	r0, r3
 915 0290 1A4B     		ldr	r3, .L239+36
 916 0292 9842     		cmp	r0, r3
 917 0294 44D0     		beq	.L83
 918              		.loc 1 387 0 discriminator 17
 919 0296 7B68     		ldr	r3, [r7, #4]
 920 0298 1B68     		ldr	r3, [r3]
 921 029a 1846     		mov	r0, r3
 922 029c 184B     		ldr	r3, .L239+40
 923 029e 9842     		cmp	r0, r3
ARM GAS  /tmp/cccQDy3L.s 			page 24


 924 02a0 3BD0     		beq	.L84
 925              		.loc 1 387 0 discriminator 19
 926 02a2 7B68     		ldr	r3, [r7, #4]
 927 02a4 1B68     		ldr	r3, [r3]
 928 02a6 1846     		mov	r0, r3
 929 02a8 164B     		ldr	r3, .L239+44
 930 02aa 9842     		cmp	r0, r3
 931 02ac 32D0     		beq	.L85
 932              		.loc 1 387 0 discriminator 21
 933 02ae 7B68     		ldr	r3, [r7, #4]
 934 02b0 1B68     		ldr	r3, [r3]
 935 02b2 1846     		mov	r0, r3
 936 02b4 144B     		ldr	r3, .L239+48
 937 02b6 9842     		cmp	r0, r3
 938 02b8 0BD0     		beq	.L86
 939              		.loc 1 387 0 discriminator 23
 940 02ba 7B68     		ldr	r3, [r7, #4]
 941 02bc 1B68     		ldr	r3, [r3]
 942 02be 1846     		mov	r0, r3
 943 02c0 124B     		ldr	r3, .L239+52
 944 02c2 9842     		cmp	r0, r3
 945 02c4 02D1     		bne	.L87
 946              		.loc 1 387 0 discriminator 25
 947 02c6 4FF40013 		mov	r3, #2097152
 948 02ca 3CE0     		b	.L99
 949              	.L87:
 950              		.loc 1 387 0 discriminator 26
 951 02cc 4FF00073 		mov	r3, #33554432
 952 02d0 39E0     		b	.L99
 953              	.L86:
 954              		.loc 1 387 0 discriminator 24
 955 02d2 4FF40013 		mov	r3, #2097152
 956 02d6 36E0     		b	.L99
 957              	.L240:
 958              		.align	2
 959              	.L239:
 960 02d8 80000240 		.word	1073873024
 961 02dc 00040240 		.word	1073873920
 962 02e0 08000240 		.word	1073872904
 963 02e4 08040240 		.word	1073873928
 964 02e8 1C000240 		.word	1073872924
 965 02ec 1C040240 		.word	1073873948
 966 02f0 30000240 		.word	1073872944
 967 02f4 30040240 		.word	1073873968
 968 02f8 44000240 		.word	1073872964
 969 02fc 44040240 		.word	1073873988
 970 0300 58000240 		.word	1073872984
 971 0304 58040240 		.word	1073874008
 972 0308 6C000240 		.word	1073873004
 973 030c 6C040240 		.word	1073874028
 974 0310 00000240 		.word	1073872896
 975              	.L85:
 976              		.loc 1 387 0 discriminator 22
 977 0314 4FF40033 		mov	r3, #131072
 978 0318 15E0     		b	.L99
 979              	.L84:
 980              		.loc 1 387 0 discriminator 20
ARM GAS  /tmp/cccQDy3L.s 			page 25


 981 031a 4FF40033 		mov	r3, #131072
 982 031e 12E0     		b	.L99
 983              	.L83:
 984              		.loc 1 387 0 discriminator 18
 985 0320 4FF40053 		mov	r3, #8192
 986 0324 0FE0     		b	.L99
 987              	.L82:
 988              		.loc 1 387 0 discriminator 16
 989 0326 4FF40053 		mov	r3, #8192
 990 032a 0CE0     		b	.L99
 991              	.L81:
 992              		.loc 1 387 0 discriminator 14
 993 032c 4FF40073 		mov	r3, #512
 994 0330 09E0     		b	.L99
 995              	.L80:
 996              		.loc 1 387 0 discriminator 12
 997 0332 4FF40073 		mov	r3, #512
 998 0336 06E0     		b	.L99
 999              	.L79:
 1000              		.loc 1 387 0 discriminator 10
 1001 0338 2023     		movs	r3, #32
 1002 033a 04E0     		b	.L99
 1003              	.L78:
 1004              		.loc 1 387 0 discriminator 8
 1005 033c 2023     		movs	r3, #32
 1006 033e 02E0     		b	.L99
 1007              	.L77:
 1008              		.loc 1 387 0 discriminator 6
 1009 0340 0223     		movs	r3, #2
 1010 0342 00E0     		b	.L99
 1011              	.L76:
 1012              		.loc 1 387 0 discriminator 4
 1013 0344 0223     		movs	r3, #2
 1014              	.L99:
 1015              		.loc 1 387 0 discriminator 50
 1016 0346 1343     		orrs	r3, r3, r2
 1017 0348 4B60     		str	r3, [r1, #4]
 1018 034a 6EE0     		b	.L100
 1019              	.L75:
 1020              		.loc 1 387 0 discriminator 2
 1021 034c 9F49     		ldr	r1, .L241
 1022 034e 9F4B     		ldr	r3, .L241
 1023 0350 5A68     		ldr	r2, [r3, #4]
 1024 0352 7B68     		ldr	r3, [r7, #4]
 1025 0354 1B68     		ldr	r3, [r3]
 1026 0356 1846     		mov	r0, r3
 1027 0358 9D4B     		ldr	r3, .L241+4
 1028 035a 9842     		cmp	r0, r3
 1029 035c 62D0     		beq	.L101
 1030              		.loc 1 387 0 discriminator 51
 1031 035e 7B68     		ldr	r3, [r7, #4]
 1032 0360 1B68     		ldr	r3, [r3]
 1033 0362 1846     		mov	r0, r3
 1034 0364 9B4B     		ldr	r3, .L241+8
 1035 0366 9842     		cmp	r0, r3
 1036 0368 5AD0     		beq	.L102
 1037              		.loc 1 387 0 discriminator 53
ARM GAS  /tmp/cccQDy3L.s 			page 26


 1038 036a 7B68     		ldr	r3, [r7, #4]
 1039 036c 1B68     		ldr	r3, [r3]
 1040 036e 1846     		mov	r0, r3
 1041 0370 994B     		ldr	r3, .L241+12
 1042 0372 9842     		cmp	r0, r3
 1043 0374 52D0     		beq	.L103
 1044              		.loc 1 387 0 discriminator 55
 1045 0376 7B68     		ldr	r3, [r7, #4]
 1046 0378 1B68     		ldr	r3, [r3]
 1047 037a 1846     		mov	r0, r3
 1048 037c 974B     		ldr	r3, .L241+16
 1049 037e 9842     		cmp	r0, r3
 1050 0380 4AD0     		beq	.L104
 1051              		.loc 1 387 0 discriminator 57
 1052 0382 7B68     		ldr	r3, [r7, #4]
 1053 0384 1B68     		ldr	r3, [r3]
 1054 0386 1846     		mov	r0, r3
 1055 0388 954B     		ldr	r3, .L241+20
 1056 038a 9842     		cmp	r0, r3
 1057 038c 41D0     		beq	.L105
 1058              		.loc 1 387 0 discriminator 59
 1059 038e 7B68     		ldr	r3, [r7, #4]
 1060 0390 1B68     		ldr	r3, [r3]
 1061 0392 1846     		mov	r0, r3
 1062 0394 934B     		ldr	r3, .L241+24
 1063 0396 9842     		cmp	r0, r3
 1064 0398 38D0     		beq	.L106
 1065              		.loc 1 387 0 discriminator 61
 1066 039a 7B68     		ldr	r3, [r7, #4]
 1067 039c 1B68     		ldr	r3, [r3]
 1068 039e 1846     		mov	r0, r3
 1069 03a0 914B     		ldr	r3, .L241+28
 1070 03a2 9842     		cmp	r0, r3
 1071 03a4 2FD0     		beq	.L107
 1072              		.loc 1 387 0 discriminator 63
 1073 03a6 7B68     		ldr	r3, [r7, #4]
 1074 03a8 1B68     		ldr	r3, [r3]
 1075 03aa 1846     		mov	r0, r3
 1076 03ac 8F4B     		ldr	r3, .L241+32
 1077 03ae 9842     		cmp	r0, r3
 1078 03b0 26D0     		beq	.L108
 1079              		.loc 1 387 0 discriminator 65
 1080 03b2 7B68     		ldr	r3, [r7, #4]
 1081 03b4 1B68     		ldr	r3, [r3]
 1082 03b6 1846     		mov	r0, r3
 1083 03b8 8D4B     		ldr	r3, .L241+36
 1084 03ba 9842     		cmp	r0, r3
 1085 03bc 1DD0     		beq	.L109
 1086              		.loc 1 387 0 discriminator 67
 1087 03be 7B68     		ldr	r3, [r7, #4]
 1088 03c0 1B68     		ldr	r3, [r3]
 1089 03c2 1846     		mov	r0, r3
 1090 03c4 8B4B     		ldr	r3, .L241+40
 1091 03c6 9842     		cmp	r0, r3
 1092 03c8 14D0     		beq	.L110
 1093              		.loc 1 387 0 discriminator 69
 1094 03ca 7B68     		ldr	r3, [r7, #4]
ARM GAS  /tmp/cccQDy3L.s 			page 27


 1095 03cc 1B68     		ldr	r3, [r3]
 1096 03ce 1846     		mov	r0, r3
 1097 03d0 894B     		ldr	r3, .L241+44
 1098 03d2 9842     		cmp	r0, r3
 1099 03d4 0BD0     		beq	.L111
 1100              		.loc 1 387 0 discriminator 71
 1101 03d6 7B68     		ldr	r3, [r7, #4]
 1102 03d8 1B68     		ldr	r3, [r3]
 1103 03da 1846     		mov	r0, r3
 1104 03dc 874B     		ldr	r3, .L241+48
 1105 03de 9842     		cmp	r0, r3
 1106 03e0 02D1     		bne	.L112
 1107              		.loc 1 387 0 discriminator 73
 1108 03e2 4FF40013 		mov	r3, #2097152
 1109 03e6 1EE0     		b	.L124
 1110              	.L112:
 1111              		.loc 1 387 0 discriminator 74
 1112 03e8 4FF00073 		mov	r3, #33554432
 1113 03ec 1BE0     		b	.L124
 1114              	.L111:
 1115              		.loc 1 387 0 discriminator 72
 1116 03ee 4FF40013 		mov	r3, #2097152
 1117 03f2 18E0     		b	.L124
 1118              	.L110:
 1119              		.loc 1 387 0 discriminator 70
 1120 03f4 4FF40033 		mov	r3, #131072
 1121 03f8 15E0     		b	.L124
 1122              	.L109:
 1123              		.loc 1 387 0 discriminator 68
 1124 03fa 4FF40033 		mov	r3, #131072
 1125 03fe 12E0     		b	.L124
 1126              	.L108:
 1127              		.loc 1 387 0 discriminator 66
 1128 0400 4FF40053 		mov	r3, #8192
 1129 0404 0FE0     		b	.L124
 1130              	.L107:
 1131              		.loc 1 387 0 discriminator 64
 1132 0406 4FF40053 		mov	r3, #8192
 1133 040a 0CE0     		b	.L124
 1134              	.L106:
 1135              		.loc 1 387 0 discriminator 62
 1136 040c 4FF40073 		mov	r3, #512
 1137 0410 09E0     		b	.L124
 1138              	.L105:
 1139              		.loc 1 387 0 discriminator 60
 1140 0412 4FF40073 		mov	r3, #512
 1141 0416 06E0     		b	.L124
 1142              	.L104:
 1143              		.loc 1 387 0 discriminator 58
 1144 0418 2023     		movs	r3, #32
 1145 041a 04E0     		b	.L124
 1146              	.L103:
 1147              		.loc 1 387 0 discriminator 56
 1148 041c 2023     		movs	r3, #32
 1149 041e 02E0     		b	.L124
 1150              	.L102:
 1151              		.loc 1 387 0 discriminator 54
ARM GAS  /tmp/cccQDy3L.s 			page 28


 1152 0420 0223     		movs	r3, #2
 1153 0422 00E0     		b	.L124
 1154              	.L101:
 1155              		.loc 1 387 0 discriminator 52
 1156 0424 0223     		movs	r3, #2
 1157              	.L124:
 1158              		.loc 1 387 0 discriminator 98
 1159 0426 1343     		orrs	r3, r3, r2
 1160 0428 4B60     		str	r3, [r1, #4]
 1161              	.L100:
 388:Drivers/STM32L4xx_HAL_Driver/Src/stm32l4xx_hal_dma.c ****   __HAL_DMA_CLEAR_FLAG(hdma, __HAL_DMA_GET_TE_FLAG_INDEX(hdma));
 1162              		.loc 1 388 0 is_stmt 1
 1163 042a 7B68     		ldr	r3, [r7, #4]
 1164 042c 1B68     		ldr	r3, [r3]
 1165 042e 1A46     		mov	r2, r3
 1166 0430 734B     		ldr	r3, .L241+52
 1167 0432 9A42     		cmp	r2, r3
 1168 0434 6FD9     		bls	.L125
 1169              		.loc 1 388 0 is_stmt 0 discriminator 1
 1170 0436 7349     		ldr	r1, .L241+56
 1171 0438 724B     		ldr	r3, .L241+56
 1172 043a 5A68     		ldr	r2, [r3, #4]
 1173 043c 7B68     		ldr	r3, [r7, #4]
 1174 043e 1B68     		ldr	r3, [r3]
 1175 0440 1846     		mov	r0, r3
 1176 0442 634B     		ldr	r3, .L241+4
 1177 0444 9842     		cmp	r0, r3
 1178 0446 62D0     		beq	.L126
 1179              		.loc 1 388 0 discriminator 3
 1180 0448 7B68     		ldr	r3, [r7, #4]
 1181 044a 1B68     		ldr	r3, [r3]
 1182 044c 1846     		mov	r0, r3
 1183 044e 614B     		ldr	r3, .L241+8
 1184 0450 9842     		cmp	r0, r3
 1185 0452 5AD0     		beq	.L127
 1186              		.loc 1 388 0 discriminator 5
 1187 0454 7B68     		ldr	r3, [r7, #4]
 1188 0456 1B68     		ldr	r3, [r3]
 1189 0458 1846     		mov	r0, r3
 1190 045a 5F4B     		ldr	r3, .L241+12
 1191 045c 9842     		cmp	r0, r3
 1192 045e 52D0     		beq	.L128
 1193              		.loc 1 388 0 discriminator 7
 1194 0460 7B68     		ldr	r3, [r7, #4]
 1195 0462 1B68     		ldr	r3, [r3]
 1196 0464 1846     		mov	r0, r3
 1197 0466 5D4B     		ldr	r3, .L241+16
 1198 0468 9842     		cmp	r0, r3
 1199 046a 4AD0     		beq	.L129
 1200              		.loc 1 388 0 discriminator 9
 1201 046c 7B68     		ldr	r3, [r7, #4]
 1202 046e 1B68     		ldr	r3, [r3]
 1203 0470 1846     		mov	r0, r3
 1204 0472 5B4B     		ldr	r3, .L241+20
 1205 0474 9842     		cmp	r0, r3
 1206 0476 41D0     		beq	.L130
 1207              		.loc 1 388 0 discriminator 11
ARM GAS  /tmp/cccQDy3L.s 			page 29


 1208 0478 7B68     		ldr	r3, [r7, #4]
 1209 047a 1B68     		ldr	r3, [r3]
 1210 047c 1846     		mov	r0, r3
 1211 047e 594B     		ldr	r3, .L241+24
 1212 0480 9842     		cmp	r0, r3
 1213 0482 38D0     		beq	.L131
 1214              		.loc 1 388 0 discriminator 13
 1215 0484 7B68     		ldr	r3, [r7, #4]
 1216 0486 1B68     		ldr	r3, [r3]
 1217 0488 1846     		mov	r0, r3
 1218 048a 574B     		ldr	r3, .L241+28
 1219 048c 9842     		cmp	r0, r3
 1220 048e 2FD0     		beq	.L132
 1221              		.loc 1 388 0 discriminator 15
 1222 0490 7B68     		ldr	r3, [r7, #4]
 1223 0492 1B68     		ldr	r3, [r3]
 1224 0494 1846     		mov	r0, r3
 1225 0496 554B     		ldr	r3, .L241+32
 1226 0498 9842     		cmp	r0, r3
 1227 049a 26D0     		beq	.L133
 1228              		.loc 1 388 0 discriminator 17
 1229 049c 7B68     		ldr	r3, [r7, #4]
 1230 049e 1B68     		ldr	r3, [r3]
 1231 04a0 1846     		mov	r0, r3
 1232 04a2 534B     		ldr	r3, .L241+36
 1233 04a4 9842     		cmp	r0, r3
 1234 04a6 1DD0     		beq	.L134
 1235              		.loc 1 388 0 discriminator 19
 1236 04a8 7B68     		ldr	r3, [r7, #4]
 1237 04aa 1B68     		ldr	r3, [r3]
 1238 04ac 1846     		mov	r0, r3
 1239 04ae 514B     		ldr	r3, .L241+40
 1240 04b0 9842     		cmp	r0, r3
 1241 04b2 14D0     		beq	.L135
 1242              		.loc 1 388 0 discriminator 21
 1243 04b4 7B68     		ldr	r3, [r7, #4]
 1244 04b6 1B68     		ldr	r3, [r3]
 1245 04b8 1846     		mov	r0, r3
 1246 04ba 4F4B     		ldr	r3, .L241+44
 1247 04bc 9842     		cmp	r0, r3
 1248 04be 0BD0     		beq	.L136
 1249              		.loc 1 388 0 discriminator 23
 1250 04c0 7B68     		ldr	r3, [r7, #4]
 1251 04c2 1B68     		ldr	r3, [r3]
 1252 04c4 1846     		mov	r0, r3
 1253 04c6 4D4B     		ldr	r3, .L241+48
 1254 04c8 9842     		cmp	r0, r3
 1255 04ca 02D1     		bne	.L137
 1256              		.loc 1 388 0 discriminator 25
 1257 04cc 4FF40003 		mov	r3, #8388608
 1258 04d0 1EE0     		b	.L149
 1259              	.L137:
 1260              		.loc 1 388 0 discriminator 26
 1261 04d2 4FF00063 		mov	r3, #134217728
 1262 04d6 1BE0     		b	.L149
 1263              	.L136:
 1264              		.loc 1 388 0 discriminator 24
ARM GAS  /tmp/cccQDy3L.s 			page 30


 1265 04d8 4FF40003 		mov	r3, #8388608
 1266 04dc 18E0     		b	.L149
 1267              	.L135:
 1268              		.loc 1 388 0 discriminator 22
 1269 04de 4FF40023 		mov	r3, #524288
 1270 04e2 15E0     		b	.L149
 1271              	.L134:
 1272              		.loc 1 388 0 discriminator 20
 1273 04e4 4FF40023 		mov	r3, #524288
 1274 04e8 12E0     		b	.L149
 1275              	.L133:
 1276              		.loc 1 388 0 discriminator 18
 1277 04ea 4FF40043 		mov	r3, #32768
 1278 04ee 0FE0     		b	.L149
 1279              	.L132:
 1280              		.loc 1 388 0 discriminator 16
 1281 04f0 4FF40043 		mov	r3, #32768
 1282 04f4 0CE0     		b	.L149
 1283              	.L131:
 1284              		.loc 1 388 0 discriminator 14
 1285 04f6 4FF40063 		mov	r3, #2048
 1286 04fa 09E0     		b	.L149
 1287              	.L130:
 1288              		.loc 1 388 0 discriminator 12
 1289 04fc 4FF40063 		mov	r3, #2048
 1290 0500 06E0     		b	.L149
 1291              	.L129:
 1292              		.loc 1 388 0 discriminator 10
 1293 0502 8023     		movs	r3, #128
 1294 0504 04E0     		b	.L149
 1295              	.L128:
 1296              		.loc 1 388 0 discriminator 8
 1297 0506 8023     		movs	r3, #128
 1298 0508 02E0     		b	.L149
 1299              	.L127:
 1300              		.loc 1 388 0 discriminator 6
 1301 050a 0823     		movs	r3, #8
 1302 050c 00E0     		b	.L149
 1303              	.L126:
 1304              		.loc 1 388 0 discriminator 4
 1305 050e 0823     		movs	r3, #8
 1306              	.L149:
 1307              		.loc 1 388 0 discriminator 50
 1308 0510 1343     		orrs	r3, r3, r2
 1309 0512 4B60     		str	r3, [r1, #4]
 1310 0514 8DE0     		b	.L150
 1311              	.L125:
 1312              		.loc 1 388 0 discriminator 2
 1313 0516 2D49     		ldr	r1, .L241
 1314 0518 2C4B     		ldr	r3, .L241
 1315 051a 5A68     		ldr	r2, [r3, #4]
 1316 051c 7B68     		ldr	r3, [r7, #4]
 1317 051e 1B68     		ldr	r3, [r3]
 1318 0520 1846     		mov	r0, r3
 1319 0522 2B4B     		ldr	r3, .L241+4
 1320 0524 9842     		cmp	r0, r3
 1321 0526 00F08180 		beq	.L151
ARM GAS  /tmp/cccQDy3L.s 			page 31


 1322              		.loc 1 388 0 discriminator 51
 1323 052a 7B68     		ldr	r3, [r7, #4]
 1324 052c 1B68     		ldr	r3, [r3]
 1325 052e 1846     		mov	r0, r3
 1326 0530 284B     		ldr	r3, .L241+8
 1327 0532 9842     		cmp	r0, r3
 1328 0534 78D0     		beq	.L152
 1329              		.loc 1 388 0 discriminator 53
 1330 0536 7B68     		ldr	r3, [r7, #4]
 1331 0538 1B68     		ldr	r3, [r3]
 1332 053a 1846     		mov	r0, r3
 1333 053c 264B     		ldr	r3, .L241+12
 1334 053e 9842     		cmp	r0, r3
 1335 0540 70D0     		beq	.L153
 1336              		.loc 1 388 0 discriminator 55
 1337 0542 7B68     		ldr	r3, [r7, #4]
 1338 0544 1B68     		ldr	r3, [r3]
 1339 0546 1846     		mov	r0, r3
 1340 0548 244B     		ldr	r3, .L241+16
 1341 054a 9842     		cmp	r0, r3
 1342 054c 68D0     		beq	.L154
 1343              		.loc 1 388 0 discriminator 57
 1344 054e 7B68     		ldr	r3, [r7, #4]
 1345 0550 1B68     		ldr	r3, [r3]
 1346 0552 1846     		mov	r0, r3
 1347 0554 224B     		ldr	r3, .L241+20
 1348 0556 9842     		cmp	r0, r3
 1349 0558 5FD0     		beq	.L155
 1350              		.loc 1 388 0 discriminator 59
 1351 055a 7B68     		ldr	r3, [r7, #4]
 1352 055c 1B68     		ldr	r3, [r3]
 1353 055e 1846     		mov	r0, r3
 1354 0560 204B     		ldr	r3, .L241+24
 1355 0562 9842     		cmp	r0, r3
 1356 0564 56D0     		beq	.L156
 1357              		.loc 1 388 0 discriminator 61
 1358 0566 7B68     		ldr	r3, [r7, #4]
 1359 0568 1B68     		ldr	r3, [r3]
 1360 056a 1846     		mov	r0, r3
 1361 056c 1E4B     		ldr	r3, .L241+28
 1362 056e 9842     		cmp	r0, r3
 1363 0570 4DD0     		beq	.L157
 1364              		.loc 1 388 0 discriminator 63
 1365 0572 7B68     		ldr	r3, [r7, #4]
 1366 0574 1B68     		ldr	r3, [r3]
 1367 0576 1846     		mov	r0, r3
 1368 0578 1C4B     		ldr	r3, .L241+32
 1369 057a 9842     		cmp	r0, r3
 1370 057c 44D0     		beq	.L158
 1371              		.loc 1 388 0 discriminator 65
 1372 057e 7B68     		ldr	r3, [r7, #4]
 1373 0580 1B68     		ldr	r3, [r3]
 1374 0582 1846     		mov	r0, r3
 1375 0584 1A4B     		ldr	r3, .L241+36
 1376 0586 9842     		cmp	r0, r3
 1377 0588 1DD0     		beq	.L159
 1378              		.loc 1 388 0 discriminator 67
ARM GAS  /tmp/cccQDy3L.s 			page 32


 1379 058a 7B68     		ldr	r3, [r7, #4]
 1380 058c 1B68     		ldr	r3, [r3]
 1381 058e 1846     		mov	r0, r3
 1382 0590 184B     		ldr	r3, .L241+40
 1383 0592 9842     		cmp	r0, r3
 1384 0594 14D0     		beq	.L160
 1385              		.loc 1 388 0 discriminator 69
 1386 0596 7B68     		ldr	r3, [r7, #4]
 1387 0598 1B68     		ldr	r3, [r3]
 1388 059a 1846     		mov	r0, r3
 1389 059c 164B     		ldr	r3, .L241+44
 1390 059e 9842     		cmp	r0, r3
 1391 05a0 0BD0     		beq	.L161
 1392              		.loc 1 388 0 discriminator 71
 1393 05a2 7B68     		ldr	r3, [r7, #4]
 1394 05a4 1B68     		ldr	r3, [r3]
 1395 05a6 1846     		mov	r0, r3
 1396 05a8 144B     		ldr	r3, .L241+48
 1397 05aa 9842     		cmp	r0, r3
 1398 05ac 02D1     		bne	.L162
 1399              		.loc 1 388 0 discriminator 73
 1400 05ae 4FF40003 		mov	r3, #8388608
 1401 05b2 3CE0     		b	.L174
 1402              	.L162:
 1403              		.loc 1 388 0 discriminator 74
 1404 05b4 4FF00063 		mov	r3, #134217728
 1405 05b8 39E0     		b	.L174
 1406              	.L161:
 1407              		.loc 1 388 0 discriminator 72
 1408 05ba 4FF40003 		mov	r3, #8388608
 1409 05be 36E0     		b	.L174
 1410              	.L160:
 1411              		.loc 1 388 0 discriminator 70
 1412 05c0 4FF40023 		mov	r3, #524288
 1413 05c4 33E0     		b	.L174
 1414              	.L159:
 1415              		.loc 1 388 0 discriminator 68
 1416 05c6 4FF40023 		mov	r3, #524288
 1417 05ca 30E0     		b	.L174
 1418              	.L242:
 1419              		.align	2
 1420              	.L241:
 1421 05cc 00000240 		.word	1073872896
 1422 05d0 08000240 		.word	1073872904
 1423 05d4 08040240 		.word	1073873928
 1424 05d8 1C000240 		.word	1073872924
 1425 05dc 1C040240 		.word	1073873948
 1426 05e0 30000240 		.word	1073872944
 1427 05e4 30040240 		.word	1073873968
 1428 05e8 44000240 		.word	1073872964
 1429 05ec 44040240 		.word	1073873988
 1430 05f0 58000240 		.word	1073872984
 1431 05f4 58040240 		.word	1073874008
 1432 05f8 6C000240 		.word	1073873004
 1433 05fc 6C040240 		.word	1073874028
 1434 0600 80000240 		.word	1073873024
 1435 0604 00040240 		.word	1073873920
ARM GAS  /tmp/cccQDy3L.s 			page 33


 1436              	.L158:
 1437              		.loc 1 388 0 discriminator 66
 1438 0608 4FF40043 		mov	r3, #32768
 1439 060c 0FE0     		b	.L174
 1440              	.L157:
 1441              		.loc 1 388 0 discriminator 64
 1442 060e 4FF40043 		mov	r3, #32768
 1443 0612 0CE0     		b	.L174
 1444              	.L156:
 1445              		.loc 1 388 0 discriminator 62
 1446 0614 4FF40063 		mov	r3, #2048
 1447 0618 09E0     		b	.L174
 1448              	.L155:
 1449              		.loc 1 388 0 discriminator 60
 1450 061a 4FF40063 		mov	r3, #2048
 1451 061e 06E0     		b	.L174
 1452              	.L154:
 1453              		.loc 1 388 0 discriminator 58
 1454 0620 8023     		movs	r3, #128
 1455 0622 04E0     		b	.L174
 1456              	.L153:
 1457              		.loc 1 388 0 discriminator 56
 1458 0624 8023     		movs	r3, #128
 1459 0626 02E0     		b	.L174
 1460              	.L152:
 1461              		.loc 1 388 0 discriminator 54
 1462 0628 0823     		movs	r3, #8
 1463 062a 00E0     		b	.L174
 1464              	.L151:
 1465              		.loc 1 388 0 discriminator 52
 1466 062c 0823     		movs	r3, #8
 1467              	.L174:
 1468              		.loc 1 388 0 discriminator 98
 1469 062e 1343     		orrs	r3, r3, r2
 1470 0630 4B60     		str	r3, [r1, #4]
 1471              	.L150:
 389:Drivers/STM32L4xx_HAL_Driver/Src/stm32l4xx_hal_dma.c ****   __HAL_DMA_CLEAR_FLAG(hdma, __HAL_DMA_GET_HT_FLAG_INDEX(hdma));
 1472              		.loc 1 389 0 is_stmt 1
 1473 0632 7B68     		ldr	r3, [r7, #4]
 1474 0634 1B68     		ldr	r3, [r3]
 1475 0636 1A46     		mov	r2, r3
 1476 0638 9A4B     		ldr	r3, .L243
 1477 063a 9A42     		cmp	r2, r3
 1478 063c 6FD9     		bls	.L175
 1479              		.loc 1 389 0 is_stmt 0 discriminator 1
 1480 063e 9A49     		ldr	r1, .L243+4
 1481 0640 994B     		ldr	r3, .L243+4
 1482 0642 5A68     		ldr	r2, [r3, #4]
 1483 0644 7B68     		ldr	r3, [r7, #4]
 1484 0646 1B68     		ldr	r3, [r3]
 1485 0648 1846     		mov	r0, r3
 1486 064a 984B     		ldr	r3, .L243+8
 1487 064c 9842     		cmp	r0, r3
 1488 064e 62D0     		beq	.L176
 1489              		.loc 1 389 0 discriminator 3
 1490 0650 7B68     		ldr	r3, [r7, #4]
 1491 0652 1B68     		ldr	r3, [r3]
ARM GAS  /tmp/cccQDy3L.s 			page 34


 1492 0654 1846     		mov	r0, r3
 1493 0656 964B     		ldr	r3, .L243+12
 1494 0658 9842     		cmp	r0, r3
 1495 065a 5AD0     		beq	.L177
 1496              		.loc 1 389 0 discriminator 5
 1497 065c 7B68     		ldr	r3, [r7, #4]
 1498 065e 1B68     		ldr	r3, [r3]
 1499 0660 1846     		mov	r0, r3
 1500 0662 944B     		ldr	r3, .L243+16
 1501 0664 9842     		cmp	r0, r3
 1502 0666 52D0     		beq	.L178
 1503              		.loc 1 389 0 discriminator 7
 1504 0668 7B68     		ldr	r3, [r7, #4]
 1505 066a 1B68     		ldr	r3, [r3]
 1506 066c 1846     		mov	r0, r3
 1507 066e 924B     		ldr	r3, .L243+20
 1508 0670 9842     		cmp	r0, r3
 1509 0672 4AD0     		beq	.L179
 1510              		.loc 1 389 0 discriminator 9
 1511 0674 7B68     		ldr	r3, [r7, #4]
 1512 0676 1B68     		ldr	r3, [r3]
 1513 0678 1846     		mov	r0, r3
 1514 067a 904B     		ldr	r3, .L243+24
 1515 067c 9842     		cmp	r0, r3
 1516 067e 41D0     		beq	.L180
 1517              		.loc 1 389 0 discriminator 11
 1518 0680 7B68     		ldr	r3, [r7, #4]
 1519 0682 1B68     		ldr	r3, [r3]
 1520 0684 1846     		mov	r0, r3
 1521 0686 8E4B     		ldr	r3, .L243+28
 1522 0688 9842     		cmp	r0, r3
 1523 068a 38D0     		beq	.L181
 1524              		.loc 1 389 0 discriminator 13
 1525 068c 7B68     		ldr	r3, [r7, #4]
 1526 068e 1B68     		ldr	r3, [r3]
 1527 0690 1846     		mov	r0, r3
 1528 0692 8C4B     		ldr	r3, .L243+32
 1529 0694 9842     		cmp	r0, r3
 1530 0696 2FD0     		beq	.L182
 1531              		.loc 1 389 0 discriminator 15
 1532 0698 7B68     		ldr	r3, [r7, #4]
 1533 069a 1B68     		ldr	r3, [r3]
 1534 069c 1846     		mov	r0, r3
 1535 069e 8A4B     		ldr	r3, .L243+36
 1536 06a0 9842     		cmp	r0, r3
 1537 06a2 26D0     		beq	.L183
 1538              		.loc 1 389 0 discriminator 17
 1539 06a4 7B68     		ldr	r3, [r7, #4]
 1540 06a6 1B68     		ldr	r3, [r3]
 1541 06a8 1846     		mov	r0, r3
 1542 06aa 884B     		ldr	r3, .L243+40
 1543 06ac 9842     		cmp	r0, r3
 1544 06ae 1DD0     		beq	.L184
 1545              		.loc 1 389 0 discriminator 19
 1546 06b0 7B68     		ldr	r3, [r7, #4]
 1547 06b2 1B68     		ldr	r3, [r3]
 1548 06b4 1846     		mov	r0, r3
ARM GAS  /tmp/cccQDy3L.s 			page 35


 1549 06b6 864B     		ldr	r3, .L243+44
 1550 06b8 9842     		cmp	r0, r3
 1551 06ba 14D0     		beq	.L185
 1552              		.loc 1 389 0 discriminator 21
 1553 06bc 7B68     		ldr	r3, [r7, #4]
 1554 06be 1B68     		ldr	r3, [r3]
 1555 06c0 1846     		mov	r0, r3
 1556 06c2 844B     		ldr	r3, .L243+48
 1557 06c4 9842     		cmp	r0, r3
 1558 06c6 0BD0     		beq	.L186
 1559              		.loc 1 389 0 discriminator 23
 1560 06c8 7B68     		ldr	r3, [r7, #4]
 1561 06ca 1B68     		ldr	r3, [r3]
 1562 06cc 1846     		mov	r0, r3
 1563 06ce 824B     		ldr	r3, .L243+52
 1564 06d0 9842     		cmp	r0, r3
 1565 06d2 02D1     		bne	.L187
 1566              		.loc 1 389 0 discriminator 25
 1567 06d4 4FF48003 		mov	r3, #4194304
 1568 06d8 1EE0     		b	.L199
 1569              	.L187:
 1570              		.loc 1 389 0 discriminator 26
 1571 06da 4FF08063 		mov	r3, #67108864
 1572 06de 1BE0     		b	.L199
 1573              	.L186:
 1574              		.loc 1 389 0 discriminator 24
 1575 06e0 4FF48003 		mov	r3, #4194304
 1576 06e4 18E0     		b	.L199
 1577              	.L185:
 1578              		.loc 1 389 0 discriminator 22
 1579 06e6 4FF48023 		mov	r3, #262144
 1580 06ea 15E0     		b	.L199
 1581              	.L184:
 1582              		.loc 1 389 0 discriminator 20
 1583 06ec 4FF48023 		mov	r3, #262144
 1584 06f0 12E0     		b	.L199
 1585              	.L183:
 1586              		.loc 1 389 0 discriminator 18
 1587 06f2 4FF48043 		mov	r3, #16384
 1588 06f6 0FE0     		b	.L199
 1589              	.L182:
 1590              		.loc 1 389 0 discriminator 16
 1591 06f8 4FF48043 		mov	r3, #16384
 1592 06fc 0CE0     		b	.L199
 1593              	.L181:
 1594              		.loc 1 389 0 discriminator 14
 1595 06fe 4FF48063 		mov	r3, #1024
 1596 0702 09E0     		b	.L199
 1597              	.L180:
 1598              		.loc 1 389 0 discriminator 12
 1599 0704 4FF48063 		mov	r3, #1024
 1600 0708 06E0     		b	.L199
 1601              	.L179:
 1602              		.loc 1 389 0 discriminator 10
 1603 070a 4023     		movs	r3, #64
 1604 070c 04E0     		b	.L199
 1605              	.L178:
ARM GAS  /tmp/cccQDy3L.s 			page 36


 1606              		.loc 1 389 0 discriminator 8
 1607 070e 4023     		movs	r3, #64
 1608 0710 02E0     		b	.L199
 1609              	.L177:
 1610              		.loc 1 389 0 discriminator 6
 1611 0712 0423     		movs	r3, #4
 1612 0714 00E0     		b	.L199
 1613              	.L176:
 1614              		.loc 1 389 0 discriminator 4
 1615 0716 0423     		movs	r3, #4
 1616              	.L199:
 1617              		.loc 1 389 0 discriminator 50
 1618 0718 1343     		orrs	r3, r3, r2
 1619 071a 4B60     		str	r3, [r1, #4]
 1620 071c 6EE0     		b	.L200
 1621              	.L175:
 1622              		.loc 1 389 0 discriminator 2
 1623 071e 6F49     		ldr	r1, .L243+56
 1624 0720 6E4B     		ldr	r3, .L243+56
 1625 0722 5A68     		ldr	r2, [r3, #4]
 1626 0724 7B68     		ldr	r3, [r7, #4]
 1627 0726 1B68     		ldr	r3, [r3]
 1628 0728 1846     		mov	r0, r3
 1629 072a 604B     		ldr	r3, .L243+8
 1630 072c 9842     		cmp	r0, r3
 1631 072e 62D0     		beq	.L201
 1632              		.loc 1 389 0 discriminator 51
 1633 0730 7B68     		ldr	r3, [r7, #4]
 1634 0732 1B68     		ldr	r3, [r3]
 1635 0734 1846     		mov	r0, r3
 1636 0736 5E4B     		ldr	r3, .L243+12
 1637 0738 9842     		cmp	r0, r3
 1638 073a 5AD0     		beq	.L202
 1639              		.loc 1 389 0 discriminator 53
 1640 073c 7B68     		ldr	r3, [r7, #4]
 1641 073e 1B68     		ldr	r3, [r3]
 1642 0740 1846     		mov	r0, r3
 1643 0742 5C4B     		ldr	r3, .L243+16
 1644 0744 9842     		cmp	r0, r3
 1645 0746 52D0     		beq	.L203
 1646              		.loc 1 389 0 discriminator 55
 1647 0748 7B68     		ldr	r3, [r7, #4]
 1648 074a 1B68     		ldr	r3, [r3]
 1649 074c 1846     		mov	r0, r3
 1650 074e 5A4B     		ldr	r3, .L243+20
 1651 0750 9842     		cmp	r0, r3
 1652 0752 4AD0     		beq	.L204
 1653              		.loc 1 389 0 discriminator 57
 1654 0754 7B68     		ldr	r3, [r7, #4]
 1655 0756 1B68     		ldr	r3, [r3]
 1656 0758 1846     		mov	r0, r3
 1657 075a 584B     		ldr	r3, .L243+24
 1658 075c 9842     		cmp	r0, r3
 1659 075e 41D0     		beq	.L205
 1660              		.loc 1 389 0 discriminator 59
 1661 0760 7B68     		ldr	r3, [r7, #4]
 1662 0762 1B68     		ldr	r3, [r3]
ARM GAS  /tmp/cccQDy3L.s 			page 37


 1663 0764 1846     		mov	r0, r3
 1664 0766 564B     		ldr	r3, .L243+28
 1665 0768 9842     		cmp	r0, r3
 1666 076a 38D0     		beq	.L206
 1667              		.loc 1 389 0 discriminator 61
 1668 076c 7B68     		ldr	r3, [r7, #4]
 1669 076e 1B68     		ldr	r3, [r3]
 1670 0770 1846     		mov	r0, r3
 1671 0772 544B     		ldr	r3, .L243+32
 1672 0774 9842     		cmp	r0, r3
 1673 0776 2FD0     		beq	.L207
 1674              		.loc 1 389 0 discriminator 63
 1675 0778 7B68     		ldr	r3, [r7, #4]
 1676 077a 1B68     		ldr	r3, [r3]
 1677 077c 1846     		mov	r0, r3
 1678 077e 524B     		ldr	r3, .L243+36
 1679 0780 9842     		cmp	r0, r3
 1680 0782 26D0     		beq	.L208
 1681              		.loc 1 389 0 discriminator 65
 1682 0784 7B68     		ldr	r3, [r7, #4]
 1683 0786 1B68     		ldr	r3, [r3]
 1684 0788 1846     		mov	r0, r3
 1685 078a 504B     		ldr	r3, .L243+40
 1686 078c 9842     		cmp	r0, r3
 1687 078e 1DD0     		beq	.L209
 1688              		.loc 1 389 0 discriminator 67
 1689 0790 7B68     		ldr	r3, [r7, #4]
 1690 0792 1B68     		ldr	r3, [r3]
 1691 0794 1846     		mov	r0, r3
 1692 0796 4E4B     		ldr	r3, .L243+44
 1693 0798 9842     		cmp	r0, r3
 1694 079a 14D0     		beq	.L210
 1695              		.loc 1 389 0 discriminator 69
 1696 079c 7B68     		ldr	r3, [r7, #4]
 1697 079e 1B68     		ldr	r3, [r3]
 1698 07a0 1846     		mov	r0, r3
 1699 07a2 4C4B     		ldr	r3, .L243+48
 1700 07a4 9842     		cmp	r0, r3
 1701 07a6 0BD0     		beq	.L211
 1702              		.loc 1 389 0 discriminator 71
 1703 07a8 7B68     		ldr	r3, [r7, #4]
 1704 07aa 1B68     		ldr	r3, [r3]
 1705 07ac 1846     		mov	r0, r3
 1706 07ae 4A4B     		ldr	r3, .L243+52
 1707 07b0 9842     		cmp	r0, r3
 1708 07b2 02D1     		bne	.L212
 1709              		.loc 1 389 0 discriminator 73
 1710 07b4 4FF48003 		mov	r3, #4194304
 1711 07b8 1EE0     		b	.L224
 1712              	.L212:
 1713              		.loc 1 389 0 discriminator 74
 1714 07ba 4FF08063 		mov	r3, #67108864
 1715 07be 1BE0     		b	.L224
 1716              	.L211:
 1717              		.loc 1 389 0 discriminator 72
 1718 07c0 4FF48003 		mov	r3, #4194304
 1719 07c4 18E0     		b	.L224
ARM GAS  /tmp/cccQDy3L.s 			page 38


 1720              	.L210:
 1721              		.loc 1 389 0 discriminator 70
 1722 07c6 4FF48023 		mov	r3, #262144
 1723 07ca 15E0     		b	.L224
 1724              	.L209:
 1725              		.loc 1 389 0 discriminator 68
 1726 07cc 4FF48023 		mov	r3, #262144
 1727 07d0 12E0     		b	.L224
 1728              	.L208:
 1729              		.loc 1 389 0 discriminator 66
 1730 07d2 4FF48043 		mov	r3, #16384
 1731 07d6 0FE0     		b	.L224
 1732              	.L207:
 1733              		.loc 1 389 0 discriminator 64
 1734 07d8 4FF48043 		mov	r3, #16384
 1735 07dc 0CE0     		b	.L224
 1736              	.L206:
 1737              		.loc 1 389 0 discriminator 62
 1738 07de 4FF48063 		mov	r3, #1024
 1739 07e2 09E0     		b	.L224
 1740              	.L205:
 1741              		.loc 1 389 0 discriminator 60
 1742 07e4 4FF48063 		mov	r3, #1024
 1743 07e8 06E0     		b	.L224
 1744              	.L204:
 1745              		.loc 1 389 0 discriminator 58
 1746 07ea 4023     		movs	r3, #64
 1747 07ec 04E0     		b	.L224
 1748              	.L203:
 1749              		.loc 1 389 0 discriminator 56
 1750 07ee 4023     		movs	r3, #64
 1751 07f0 02E0     		b	.L224
 1752              	.L202:
 1753              		.loc 1 389 0 discriminator 54
 1754 07f2 0423     		movs	r3, #4
 1755 07f4 00E0     		b	.L224
 1756              	.L201:
 1757              		.loc 1 389 0 discriminator 52
 1758 07f6 0423     		movs	r3, #4
 1759              	.L224:
 1760              		.loc 1 389 0 discriminator 98
 1761 07f8 1343     		orrs	r3, r3, r2
 1762 07fa 4B60     		str	r3, [r1, #4]
 1763              	.L200:
 390:Drivers/STM32L4xx_HAL_Driver/Src/stm32l4xx_hal_dma.c **** 
 391:Drivers/STM32L4xx_HAL_Driver/Src/stm32l4xx_hal_dma.c ****   /* Reset DMA channel selection register */
 392:Drivers/STM32L4xx_HAL_Driver/Src/stm32l4xx_hal_dma.c ****   if (hdma->Instance == DMA1_Channel1)
 1764              		.loc 1 392 0 is_stmt 1
 1765 07fc 7B68     		ldr	r3, [r7, #4]
 1766 07fe 1B68     		ldr	r3, [r3]
 1767 0800 2A4A     		ldr	r2, .L243+8
 1768 0802 9342     		cmp	r3, r2
 1769 0804 06D1     		bne	.L225
 393:Drivers/STM32L4xx_HAL_Driver/Src/stm32l4xx_hal_dma.c ****   {
 394:Drivers/STM32L4xx_HAL_Driver/Src/stm32l4xx_hal_dma.c ****     /*Reset DMA request*/
 395:Drivers/STM32L4xx_HAL_Driver/Src/stm32l4xx_hal_dma.c ****     DMA1_CSELR->CSELR &= ~DMA_CSELR_C1S;
 1770              		.loc 1 395 0
ARM GAS  /tmp/cccQDy3L.s 			page 39


 1771 0806 364A     		ldr	r2, .L243+60
 1772 0808 354B     		ldr	r3, .L243+60
 1773 080a 1B68     		ldr	r3, [r3]
 1774 080c 23F00F03 		bic	r3, r3, #15
 1775 0810 1360     		str	r3, [r2]
 1776 0812 BAE0     		b	.L226
 1777              	.L225:
 396:Drivers/STM32L4xx_HAL_Driver/Src/stm32l4xx_hal_dma.c ****   }
 397:Drivers/STM32L4xx_HAL_Driver/Src/stm32l4xx_hal_dma.c ****   else if (hdma->Instance == DMA1_Channel2)
 1778              		.loc 1 397 0
 1779 0814 7B68     		ldr	r3, [r7, #4]
 1780 0816 1B68     		ldr	r3, [r3]
 1781 0818 264A     		ldr	r2, .L243+16
 1782 081a 9342     		cmp	r3, r2
 1783 081c 06D1     		bne	.L227
 398:Drivers/STM32L4xx_HAL_Driver/Src/stm32l4xx_hal_dma.c ****   {
 399:Drivers/STM32L4xx_HAL_Driver/Src/stm32l4xx_hal_dma.c ****     /*Reset DMA request*/
 400:Drivers/STM32L4xx_HAL_Driver/Src/stm32l4xx_hal_dma.c ****     DMA1_CSELR->CSELR &= ~DMA_CSELR_C2S;
 1784              		.loc 1 400 0
 1785 081e 304A     		ldr	r2, .L243+60
 1786 0820 2F4B     		ldr	r3, .L243+60
 1787 0822 1B68     		ldr	r3, [r3]
 1788 0824 23F0F003 		bic	r3, r3, #240
 1789 0828 1360     		str	r3, [r2]
 1790 082a AEE0     		b	.L226
 1791              	.L227:
 401:Drivers/STM32L4xx_HAL_Driver/Src/stm32l4xx_hal_dma.c ****   }
 402:Drivers/STM32L4xx_HAL_Driver/Src/stm32l4xx_hal_dma.c ****   else if (hdma->Instance == DMA1_Channel3)
 1792              		.loc 1 402 0
 1793 082c 7B68     		ldr	r3, [r7, #4]
 1794 082e 1B68     		ldr	r3, [r3]
 1795 0830 224A     		ldr	r2, .L243+24
 1796 0832 9342     		cmp	r3, r2
 1797 0834 06D1     		bne	.L228
 403:Drivers/STM32L4xx_HAL_Driver/Src/stm32l4xx_hal_dma.c ****   {
 404:Drivers/STM32L4xx_HAL_Driver/Src/stm32l4xx_hal_dma.c ****     /*Reset DMA request*/
 405:Drivers/STM32L4xx_HAL_Driver/Src/stm32l4xx_hal_dma.c ****     DMA1_CSELR->CSELR &= ~DMA_CSELR_C3S;
 1798              		.loc 1 405 0
 1799 0836 2A4A     		ldr	r2, .L243+60
 1800 0838 294B     		ldr	r3, .L243+60
 1801 083a 1B68     		ldr	r3, [r3]
 1802 083c 23F47063 		bic	r3, r3, #3840
 1803 0840 1360     		str	r3, [r2]
 1804 0842 A2E0     		b	.L226
 1805              	.L228:
 406:Drivers/STM32L4xx_HAL_Driver/Src/stm32l4xx_hal_dma.c ****   }
 407:Drivers/STM32L4xx_HAL_Driver/Src/stm32l4xx_hal_dma.c ****   else if (hdma->Instance == DMA1_Channel4)
 1806              		.loc 1 407 0
 1807 0844 7B68     		ldr	r3, [r7, #4]
 1808 0846 1B68     		ldr	r3, [r3]
 1809 0848 1E4A     		ldr	r2, .L243+32
 1810 084a 9342     		cmp	r3, r2
 1811 084c 06D1     		bne	.L229
 408:Drivers/STM32L4xx_HAL_Driver/Src/stm32l4xx_hal_dma.c ****   {
 409:Drivers/STM32L4xx_HAL_Driver/Src/stm32l4xx_hal_dma.c ****     /*Reset DMA request*/
 410:Drivers/STM32L4xx_HAL_Driver/Src/stm32l4xx_hal_dma.c ****     DMA1_CSELR->CSELR &= ~DMA_CSELR_C4S;
 1812              		.loc 1 410 0
ARM GAS  /tmp/cccQDy3L.s 			page 40


 1813 084e 244A     		ldr	r2, .L243+60
 1814 0850 234B     		ldr	r3, .L243+60
 1815 0852 1B68     		ldr	r3, [r3]
 1816 0854 23F47043 		bic	r3, r3, #61440
 1817 0858 1360     		str	r3, [r2]
 1818 085a 96E0     		b	.L226
 1819              	.L229:
 411:Drivers/STM32L4xx_HAL_Driver/Src/stm32l4xx_hal_dma.c ****   }
 412:Drivers/STM32L4xx_HAL_Driver/Src/stm32l4xx_hal_dma.c ****   else if (hdma->Instance == DMA1_Channel5)
 1820              		.loc 1 412 0
 1821 085c 7B68     		ldr	r3, [r7, #4]
 1822 085e 1B68     		ldr	r3, [r3]
 1823 0860 1A4A     		ldr	r2, .L243+40
 1824 0862 9342     		cmp	r3, r2
 1825 0864 06D1     		bne	.L230
 413:Drivers/STM32L4xx_HAL_Driver/Src/stm32l4xx_hal_dma.c ****   {
 414:Drivers/STM32L4xx_HAL_Driver/Src/stm32l4xx_hal_dma.c ****     /*Reset DMA request*/
 415:Drivers/STM32L4xx_HAL_Driver/Src/stm32l4xx_hal_dma.c ****     DMA1_CSELR->CSELR &= ~DMA_CSELR_C5S;
 1826              		.loc 1 415 0
 1827 0866 1E4A     		ldr	r2, .L243+60
 1828 0868 1D4B     		ldr	r3, .L243+60
 1829 086a 1B68     		ldr	r3, [r3]
 1830 086c 23F47023 		bic	r3, r3, #983040
 1831 0870 1360     		str	r3, [r2]
 1832 0872 8AE0     		b	.L226
 1833              	.L230:
 416:Drivers/STM32L4xx_HAL_Driver/Src/stm32l4xx_hal_dma.c ****   }
 417:Drivers/STM32L4xx_HAL_Driver/Src/stm32l4xx_hal_dma.c ****   else if (hdma->Instance == DMA1_Channel6)
 1834              		.loc 1 417 0
 1835 0874 7B68     		ldr	r3, [r7, #4]
 1836 0876 1B68     		ldr	r3, [r3]
 1837 0878 164A     		ldr	r2, .L243+48
 1838 087a 9342     		cmp	r3, r2
 1839 087c 06D1     		bne	.L231
 418:Drivers/STM32L4xx_HAL_Driver/Src/stm32l4xx_hal_dma.c ****   {
 419:Drivers/STM32L4xx_HAL_Driver/Src/stm32l4xx_hal_dma.c ****     /*Reset DMA request*/
 420:Drivers/STM32L4xx_HAL_Driver/Src/stm32l4xx_hal_dma.c ****     DMA1_CSELR->CSELR &= ~DMA_CSELR_C6S;
 1840              		.loc 1 420 0
 1841 087e 184A     		ldr	r2, .L243+60
 1842 0880 174B     		ldr	r3, .L243+60
 1843 0882 1B68     		ldr	r3, [r3]
 1844 0884 23F47003 		bic	r3, r3, #15728640
 1845 0888 1360     		str	r3, [r2]
 1846 088a 7EE0     		b	.L226
 1847              	.L231:
 421:Drivers/STM32L4xx_HAL_Driver/Src/stm32l4xx_hal_dma.c ****   }
 422:Drivers/STM32L4xx_HAL_Driver/Src/stm32l4xx_hal_dma.c ****   else if (hdma->Instance == DMA1_Channel7)
 1848              		.loc 1 422 0
 1849 088c 7B68     		ldr	r3, [r7, #4]
 1850 088e 1B68     		ldr	r3, [r3]
 1851 0890 044A     		ldr	r2, .L243
 1852 0892 9342     		cmp	r3, r2
 1853 0894 26D1     		bne	.L232
 423:Drivers/STM32L4xx_HAL_Driver/Src/stm32l4xx_hal_dma.c ****   {
 424:Drivers/STM32L4xx_HAL_Driver/Src/stm32l4xx_hal_dma.c ****     /*Reset DMA request*/
 425:Drivers/STM32L4xx_HAL_Driver/Src/stm32l4xx_hal_dma.c ****     DMA1_CSELR->CSELR &= ~DMA_CSELR_C7S;
 1854              		.loc 1 425 0
ARM GAS  /tmp/cccQDy3L.s 			page 41


 1855 0896 124A     		ldr	r2, .L243+60
 1856 0898 114B     		ldr	r3, .L243+60
 1857 089a 1B68     		ldr	r3, [r3]
 1858 089c 23F07063 		bic	r3, r3, #251658240
 1859 08a0 1360     		str	r3, [r2]
 1860 08a2 72E0     		b	.L226
 1861              	.L244:
 1862              		.align	2
 1863              	.L243:
 1864 08a4 80000240 		.word	1073873024
 1865 08a8 00040240 		.word	1073873920
 1866 08ac 08000240 		.word	1073872904
 1867 08b0 08040240 		.word	1073873928
 1868 08b4 1C000240 		.word	1073872924
 1869 08b8 1C040240 		.word	1073873948
 1870 08bc 30000240 		.word	1073872944
 1871 08c0 30040240 		.word	1073873968
 1872 08c4 44000240 		.word	1073872964
 1873 08c8 44040240 		.word	1073873988
 1874 08cc 58000240 		.word	1073872984
 1875 08d0 58040240 		.word	1073874008
 1876 08d4 6C000240 		.word	1073873004
 1877 08d8 6C040240 		.word	1073874028
 1878 08dc 00000240 		.word	1073872896
 1879 08e0 A8000240 		.word	1073873064
 1880              	.L232:
 426:Drivers/STM32L4xx_HAL_Driver/Src/stm32l4xx_hal_dma.c ****   }
 427:Drivers/STM32L4xx_HAL_Driver/Src/stm32l4xx_hal_dma.c ****   else if (hdma->Instance == DMA2_Channel1)
 1881              		.loc 1 427 0
 1882 08e4 7B68     		ldr	r3, [r7, #4]
 1883 08e6 1B68     		ldr	r3, [r3]
 1884 08e8 314A     		ldr	r2, .L245
 1885 08ea 9342     		cmp	r3, r2
 1886 08ec 06D1     		bne	.L233
 428:Drivers/STM32L4xx_HAL_Driver/Src/stm32l4xx_hal_dma.c ****   {
 429:Drivers/STM32L4xx_HAL_Driver/Src/stm32l4xx_hal_dma.c ****     /*Reset DMA request*/
 430:Drivers/STM32L4xx_HAL_Driver/Src/stm32l4xx_hal_dma.c ****     DMA2_CSELR->CSELR &= ~DMA_CSELR_C1S;
 1887              		.loc 1 430 0
 1888 08ee 314A     		ldr	r2, .L245+4
 1889 08f0 304B     		ldr	r3, .L245+4
 1890 08f2 1B68     		ldr	r3, [r3]
 1891 08f4 23F00F03 		bic	r3, r3, #15
 1892 08f8 1360     		str	r3, [r2]
 1893 08fa 46E0     		b	.L226
 1894              	.L233:
 431:Drivers/STM32L4xx_HAL_Driver/Src/stm32l4xx_hal_dma.c ****   }
 432:Drivers/STM32L4xx_HAL_Driver/Src/stm32l4xx_hal_dma.c ****   else if (hdma->Instance == DMA2_Channel2)
 1895              		.loc 1 432 0
 1896 08fc 7B68     		ldr	r3, [r7, #4]
 1897 08fe 1B68     		ldr	r3, [r3]
 1898 0900 2D4A     		ldr	r2, .L245+8
 1899 0902 9342     		cmp	r3, r2
 1900 0904 06D1     		bne	.L234
 433:Drivers/STM32L4xx_HAL_Driver/Src/stm32l4xx_hal_dma.c ****   {
 434:Drivers/STM32L4xx_HAL_Driver/Src/stm32l4xx_hal_dma.c ****     /*Reset DMA request*/
 435:Drivers/STM32L4xx_HAL_Driver/Src/stm32l4xx_hal_dma.c ****     DMA2_CSELR->CSELR &= ~DMA_CSELR_C2S;
 1901              		.loc 1 435 0
ARM GAS  /tmp/cccQDy3L.s 			page 42


 1902 0906 2B4A     		ldr	r2, .L245+4
 1903 0908 2A4B     		ldr	r3, .L245+4
 1904 090a 1B68     		ldr	r3, [r3]
 1905 090c 23F0F003 		bic	r3, r3, #240
 1906 0910 1360     		str	r3, [r2]
 1907 0912 3AE0     		b	.L226
 1908              	.L234:
 436:Drivers/STM32L4xx_HAL_Driver/Src/stm32l4xx_hal_dma.c ****   }
 437:Drivers/STM32L4xx_HAL_Driver/Src/stm32l4xx_hal_dma.c ****   else if (hdma->Instance == DMA2_Channel3)
 1909              		.loc 1 437 0
 1910 0914 7B68     		ldr	r3, [r7, #4]
 1911 0916 1B68     		ldr	r3, [r3]
 1912 0918 284A     		ldr	r2, .L245+12
 1913 091a 9342     		cmp	r3, r2
 1914 091c 06D1     		bne	.L235
 438:Drivers/STM32L4xx_HAL_Driver/Src/stm32l4xx_hal_dma.c ****   {
 439:Drivers/STM32L4xx_HAL_Driver/Src/stm32l4xx_hal_dma.c ****     /*Reset DMA request*/
 440:Drivers/STM32L4xx_HAL_Driver/Src/stm32l4xx_hal_dma.c ****     DMA2_CSELR->CSELR &= ~DMA_CSELR_C3S;
 1915              		.loc 1 440 0
 1916 091e 254A     		ldr	r2, .L245+4
 1917 0920 244B     		ldr	r3, .L245+4
 1918 0922 1B68     		ldr	r3, [r3]
 1919 0924 23F47063 		bic	r3, r3, #3840
 1920 0928 1360     		str	r3, [r2]
 1921 092a 2EE0     		b	.L226
 1922              	.L235:
 441:Drivers/STM32L4xx_HAL_Driver/Src/stm32l4xx_hal_dma.c ****   }
 442:Drivers/STM32L4xx_HAL_Driver/Src/stm32l4xx_hal_dma.c ****   else if (hdma->Instance == DMA2_Channel4)
 1923              		.loc 1 442 0
 1924 092c 7B68     		ldr	r3, [r7, #4]
 1925 092e 1B68     		ldr	r3, [r3]
 1926 0930 234A     		ldr	r2, .L245+16
 1927 0932 9342     		cmp	r3, r2
 1928 0934 06D1     		bne	.L236
 443:Drivers/STM32L4xx_HAL_Driver/Src/stm32l4xx_hal_dma.c ****   {
 444:Drivers/STM32L4xx_HAL_Driver/Src/stm32l4xx_hal_dma.c ****     /*Reset DMA request*/
 445:Drivers/STM32L4xx_HAL_Driver/Src/stm32l4xx_hal_dma.c ****     DMA2_CSELR->CSELR &= ~DMA_CSELR_C4S;
 1929              		.loc 1 445 0
 1930 0936 1F4A     		ldr	r2, .L245+4
 1931 0938 1E4B     		ldr	r3, .L245+4
 1932 093a 1B68     		ldr	r3, [r3]
 1933 093c 23F47043 		bic	r3, r3, #61440
 1934 0940 1360     		str	r3, [r2]
 1935 0942 22E0     		b	.L226
 1936              	.L236:
 446:Drivers/STM32L4xx_HAL_Driver/Src/stm32l4xx_hal_dma.c ****   }
 447:Drivers/STM32L4xx_HAL_Driver/Src/stm32l4xx_hal_dma.c ****   else if (hdma->Instance == DMA2_Channel5)
 1937              		.loc 1 447 0
 1938 0944 7B68     		ldr	r3, [r7, #4]
 1939 0946 1B68     		ldr	r3, [r3]
 1940 0948 1E4A     		ldr	r2, .L245+20
 1941 094a 9342     		cmp	r3, r2
 1942 094c 06D1     		bne	.L237
 448:Drivers/STM32L4xx_HAL_Driver/Src/stm32l4xx_hal_dma.c ****   {
 449:Drivers/STM32L4xx_HAL_Driver/Src/stm32l4xx_hal_dma.c ****     /*Reset DMA request*/
 450:Drivers/STM32L4xx_HAL_Driver/Src/stm32l4xx_hal_dma.c ****     DMA2_CSELR->CSELR &= ~DMA_CSELR_C5S;
 1943              		.loc 1 450 0
ARM GAS  /tmp/cccQDy3L.s 			page 43


 1944 094e 194A     		ldr	r2, .L245+4
 1945 0950 184B     		ldr	r3, .L245+4
 1946 0952 1B68     		ldr	r3, [r3]
 1947 0954 23F47023 		bic	r3, r3, #983040
 1948 0958 1360     		str	r3, [r2]
 1949 095a 16E0     		b	.L226
 1950              	.L237:
 451:Drivers/STM32L4xx_HAL_Driver/Src/stm32l4xx_hal_dma.c ****   }
 452:Drivers/STM32L4xx_HAL_Driver/Src/stm32l4xx_hal_dma.c ****   else if (hdma->Instance == DMA2_Channel6)
 1951              		.loc 1 452 0
 1952 095c 7B68     		ldr	r3, [r7, #4]
 1953 095e 1B68     		ldr	r3, [r3]
 1954 0960 194A     		ldr	r2, .L245+24
 1955 0962 9342     		cmp	r3, r2
 1956 0964 06D1     		bne	.L238
 453:Drivers/STM32L4xx_HAL_Driver/Src/stm32l4xx_hal_dma.c ****   {
 454:Drivers/STM32L4xx_HAL_Driver/Src/stm32l4xx_hal_dma.c ****     /*Reset DMA request*/
 455:Drivers/STM32L4xx_HAL_Driver/Src/stm32l4xx_hal_dma.c ****     DMA2_CSELR->CSELR &= ~DMA_CSELR_C6S;
 1957              		.loc 1 455 0
 1958 0966 134A     		ldr	r2, .L245+4
 1959 0968 124B     		ldr	r3, .L245+4
 1960 096a 1B68     		ldr	r3, [r3]
 1961 096c 23F47003 		bic	r3, r3, #15728640
 1962 0970 1360     		str	r3, [r2]
 1963 0972 0AE0     		b	.L226
 1964              	.L238:
 456:Drivers/STM32L4xx_HAL_Driver/Src/stm32l4xx_hal_dma.c ****   }
 457:Drivers/STM32L4xx_HAL_Driver/Src/stm32l4xx_hal_dma.c ****   else if (hdma->Instance == DMA2_Channel7)
 1965              		.loc 1 457 0
 1966 0974 7B68     		ldr	r3, [r7, #4]
 1967 0976 1B68     		ldr	r3, [r3]
 1968 0978 144A     		ldr	r2, .L245+28
 1969 097a 9342     		cmp	r3, r2
 1970 097c 05D1     		bne	.L226
 458:Drivers/STM32L4xx_HAL_Driver/Src/stm32l4xx_hal_dma.c ****   {
 459:Drivers/STM32L4xx_HAL_Driver/Src/stm32l4xx_hal_dma.c ****     /*Reset DMA request*/
 460:Drivers/STM32L4xx_HAL_Driver/Src/stm32l4xx_hal_dma.c ****     DMA2_CSELR->CSELR &= ~DMA_CSELR_C7S;
 1971              		.loc 1 460 0
 1972 097e 0D4A     		ldr	r2, .L245+4
 1973 0980 0C4B     		ldr	r3, .L245+4
 1974 0982 1B68     		ldr	r3, [r3]
 1975 0984 23F07063 		bic	r3, r3, #251658240
 1976 0988 1360     		str	r3, [r2]
 1977              	.L226:
 461:Drivers/STM32L4xx_HAL_Driver/Src/stm32l4xx_hal_dma.c ****   }
 462:Drivers/STM32L4xx_HAL_Driver/Src/stm32l4xx_hal_dma.c **** 
 463:Drivers/STM32L4xx_HAL_Driver/Src/stm32l4xx_hal_dma.c ****   /* Initialize the error code */
 464:Drivers/STM32L4xx_HAL_Driver/Src/stm32l4xx_hal_dma.c ****   hdma->ErrorCode = HAL_DMA_ERROR_NONE;
 1978              		.loc 1 464 0
 1979 098a 7B68     		ldr	r3, [r7, #4]
 1980 098c 0022     		movs	r2, #0
 1981 098e 9A63     		str	r2, [r3, #56]
 465:Drivers/STM32L4xx_HAL_Driver/Src/stm32l4xx_hal_dma.c **** 
 466:Drivers/STM32L4xx_HAL_Driver/Src/stm32l4xx_hal_dma.c ****   /* Initialize the DMA state */
 467:Drivers/STM32L4xx_HAL_Driver/Src/stm32l4xx_hal_dma.c ****   hdma->State = HAL_DMA_STATE_RESET;
 1982              		.loc 1 467 0
 1983 0990 7B68     		ldr	r3, [r7, #4]
ARM GAS  /tmp/cccQDy3L.s 			page 44


 1984 0992 0022     		movs	r2, #0
 1985 0994 83F82520 		strb	r2, [r3, #37]
 468:Drivers/STM32L4xx_HAL_Driver/Src/stm32l4xx_hal_dma.c **** 
 469:Drivers/STM32L4xx_HAL_Driver/Src/stm32l4xx_hal_dma.c ****   /* Release Lock */
 470:Drivers/STM32L4xx_HAL_Driver/Src/stm32l4xx_hal_dma.c ****   __HAL_UNLOCK(hdma);
 1986              		.loc 1 470 0
 1987 0998 7B68     		ldr	r3, [r7, #4]
 1988 099a 0022     		movs	r2, #0
 1989 099c 83F82420 		strb	r2, [r3, #36]
 471:Drivers/STM32L4xx_HAL_Driver/Src/stm32l4xx_hal_dma.c **** 
 472:Drivers/STM32L4xx_HAL_Driver/Src/stm32l4xx_hal_dma.c ****   return HAL_OK;
 1990              		.loc 1 472 0
 1991 09a0 0023     		movs	r3, #0
 1992              	.L23:
 473:Drivers/STM32L4xx_HAL_Driver/Src/stm32l4xx_hal_dma.c **** }
 1993              		.loc 1 473 0
 1994 09a2 1846     		mov	r0, r3
 1995 09a4 0C37     		adds	r7, r7, #12
 1996              	.LCFI9:
 1997              		.cfi_def_cfa_offset 4
 1998 09a6 BD46     		mov	sp, r7
 1999              	.LCFI10:
 2000              		.cfi_def_cfa_register 13
 2001              		@ sp needed
 2002 09a8 5DF8047B 		ldr	r7, [sp], #4
 2003              	.LCFI11:
 2004              		.cfi_restore 7
 2005              		.cfi_def_cfa_offset 0
 2006 09ac 7047     		bx	lr
 2007              	.L246:
 2008 09ae 00BF     		.align	2
 2009              	.L245:
 2010 09b0 08040240 		.word	1073873928
 2011 09b4 A8040240 		.word	1073874088
 2012 09b8 1C040240 		.word	1073873948
 2013 09bc 30040240 		.word	1073873968
 2014 09c0 44040240 		.word	1073873988
 2015 09c4 58040240 		.word	1073874008
 2016 09c8 6C040240 		.word	1073874028
 2017 09cc 80040240 		.word	1073874048
 2018              		.cfi_endproc
 2019              	.LFE126:
 2021              		.section	.text.HAL_DMA_Start,"ax",%progbits
 2022              		.align	2
 2023              		.global	HAL_DMA_Start
 2024              		.thumb
 2025              		.thumb_func
 2027              	HAL_DMA_Start:
 2028              	.LFB127:
 474:Drivers/STM32L4xx_HAL_Driver/Src/stm32l4xx_hal_dma.c **** 
 475:Drivers/STM32L4xx_HAL_Driver/Src/stm32l4xx_hal_dma.c **** /**
 476:Drivers/STM32L4xx_HAL_Driver/Src/stm32l4xx_hal_dma.c ****   * @}
 477:Drivers/STM32L4xx_HAL_Driver/Src/stm32l4xx_hal_dma.c ****   */
 478:Drivers/STM32L4xx_HAL_Driver/Src/stm32l4xx_hal_dma.c **** 
 479:Drivers/STM32L4xx_HAL_Driver/Src/stm32l4xx_hal_dma.c **** /** @defgroup DMA_Exported_Functions_Group2 Input and Output operation functions
 480:Drivers/STM32L4xx_HAL_Driver/Src/stm32l4xx_hal_dma.c ****  *  @brief   Input and Output operation functions
 481:Drivers/STM32L4xx_HAL_Driver/Src/stm32l4xx_hal_dma.c ****  *
ARM GAS  /tmp/cccQDy3L.s 			page 45


 482:Drivers/STM32L4xx_HAL_Driver/Src/stm32l4xx_hal_dma.c **** @verbatim
 483:Drivers/STM32L4xx_HAL_Driver/Src/stm32l4xx_hal_dma.c ****  ===============================================================================
 484:Drivers/STM32L4xx_HAL_Driver/Src/stm32l4xx_hal_dma.c ****                       #####  IO operation functions  #####
 485:Drivers/STM32L4xx_HAL_Driver/Src/stm32l4xx_hal_dma.c ****  ===============================================================================
 486:Drivers/STM32L4xx_HAL_Driver/Src/stm32l4xx_hal_dma.c ****     [..]  This section provides functions allowing to:
 487:Drivers/STM32L4xx_HAL_Driver/Src/stm32l4xx_hal_dma.c ****       (+) Configure the source, destination address and data length and Start DMA transfer
 488:Drivers/STM32L4xx_HAL_Driver/Src/stm32l4xx_hal_dma.c ****       (+) Configure the source, destination address and data length and
 489:Drivers/STM32L4xx_HAL_Driver/Src/stm32l4xx_hal_dma.c ****           Start DMA transfer with interrupt
 490:Drivers/STM32L4xx_HAL_Driver/Src/stm32l4xx_hal_dma.c ****       (+) Abort DMA transfer
 491:Drivers/STM32L4xx_HAL_Driver/Src/stm32l4xx_hal_dma.c ****       (+) Poll for transfer complete
 492:Drivers/STM32L4xx_HAL_Driver/Src/stm32l4xx_hal_dma.c ****       (+) Handle DMA interrupt request
 493:Drivers/STM32L4xx_HAL_Driver/Src/stm32l4xx_hal_dma.c **** 
 494:Drivers/STM32L4xx_HAL_Driver/Src/stm32l4xx_hal_dma.c **** @endverbatim
 495:Drivers/STM32L4xx_HAL_Driver/Src/stm32l4xx_hal_dma.c ****   * @{
 496:Drivers/STM32L4xx_HAL_Driver/Src/stm32l4xx_hal_dma.c ****   */
 497:Drivers/STM32L4xx_HAL_Driver/Src/stm32l4xx_hal_dma.c **** 
 498:Drivers/STM32L4xx_HAL_Driver/Src/stm32l4xx_hal_dma.c **** /**
 499:Drivers/STM32L4xx_HAL_Driver/Src/stm32l4xx_hal_dma.c ****   * @brief  Start the DMA Transfer.
 500:Drivers/STM32L4xx_HAL_Driver/Src/stm32l4xx_hal_dma.c ****   * @param  hdma: pointer to a DMA_HandleTypeDef structure that contains
 501:Drivers/STM32L4xx_HAL_Driver/Src/stm32l4xx_hal_dma.c ****   *               the configuration information for the specified DMA Channel.
 502:Drivers/STM32L4xx_HAL_Driver/Src/stm32l4xx_hal_dma.c ****   * @param  SrcAddress: The source memory Buffer address
 503:Drivers/STM32L4xx_HAL_Driver/Src/stm32l4xx_hal_dma.c ****   * @param  DstAddress: The destination memory Buffer address
 504:Drivers/STM32L4xx_HAL_Driver/Src/stm32l4xx_hal_dma.c ****   * @param  DataLength: The length of data to be transferred from source to destination
 505:Drivers/STM32L4xx_HAL_Driver/Src/stm32l4xx_hal_dma.c ****   * @retval HAL status
 506:Drivers/STM32L4xx_HAL_Driver/Src/stm32l4xx_hal_dma.c ****   */
 507:Drivers/STM32L4xx_HAL_Driver/Src/stm32l4xx_hal_dma.c **** HAL_StatusTypeDef HAL_DMA_Start(DMA_HandleTypeDef *hdma, uint32_t SrcAddress, uint32_t DstAddress, 
 508:Drivers/STM32L4xx_HAL_Driver/Src/stm32l4xx_hal_dma.c **** {
 2029              		.loc 1 508 0
 2030              		.cfi_startproc
 2031              		@ args = 0, pretend = 0, frame = 16
 2032              		@ frame_needed = 1, uses_anonymous_args = 0
 2033 0000 80B5     		push	{r7, lr}
 2034              	.LCFI12:
 2035              		.cfi_def_cfa_offset 8
 2036              		.cfi_offset 7, -8
 2037              		.cfi_offset 14, -4
 2038 0002 84B0     		sub	sp, sp, #16
 2039              	.LCFI13:
 2040              		.cfi_def_cfa_offset 24
 2041 0004 00AF     		add	r7, sp, #0
 2042              	.LCFI14:
 2043              		.cfi_def_cfa_register 7
 2044 0006 F860     		str	r0, [r7, #12]
 2045 0008 B960     		str	r1, [r7, #8]
 2046 000a 7A60     		str	r2, [r7, #4]
 2047 000c 3B60     		str	r3, [r7]
 509:Drivers/STM32L4xx_HAL_Driver/Src/stm32l4xx_hal_dma.c ****   /* Process locked */
 510:Drivers/STM32L4xx_HAL_Driver/Src/stm32l4xx_hal_dma.c ****   __HAL_LOCK(hdma);
 2048              		.loc 1 510 0
 2049 000e FB68     		ldr	r3, [r7, #12]
 2050 0010 93F82430 		ldrb	r3, [r3, #36]	@ zero_extendqisi2
 2051 0014 012B     		cmp	r3, #1
 2052 0016 01D1     		bne	.L248
 2053              		.loc 1 510 0 is_stmt 0 discriminator 1
 2054 0018 0223     		movs	r3, #2
 2055 001a 1EE0     		b	.L249
 2056              	.L248:
ARM GAS  /tmp/cccQDy3L.s 			page 46


 2057              		.loc 1 510 0 discriminator 2
 2058 001c FB68     		ldr	r3, [r7, #12]
 2059 001e 0122     		movs	r2, #1
 2060 0020 83F82420 		strb	r2, [r3, #36]
 511:Drivers/STM32L4xx_HAL_Driver/Src/stm32l4xx_hal_dma.c **** 
 512:Drivers/STM32L4xx_HAL_Driver/Src/stm32l4xx_hal_dma.c ****   /* Change DMA peripheral state */
 513:Drivers/STM32L4xx_HAL_Driver/Src/stm32l4xx_hal_dma.c ****   hdma->State = HAL_DMA_STATE_BUSY;
 2061              		.loc 1 513 0 is_stmt 1 discriminator 2
 2062 0024 FB68     		ldr	r3, [r7, #12]
 2063 0026 0222     		movs	r2, #2
 2064 0028 83F82520 		strb	r2, [r3, #37]
 514:Drivers/STM32L4xx_HAL_Driver/Src/stm32l4xx_hal_dma.c **** 
 515:Drivers/STM32L4xx_HAL_Driver/Src/stm32l4xx_hal_dma.c ****    /* Check the parameters */
 516:Drivers/STM32L4xx_HAL_Driver/Src/stm32l4xx_hal_dma.c ****   assert_param(IS_DMA_BUFFER_SIZE(DataLength));
 517:Drivers/STM32L4xx_HAL_Driver/Src/stm32l4xx_hal_dma.c **** 
 518:Drivers/STM32L4xx_HAL_Driver/Src/stm32l4xx_hal_dma.c ****   /* Disable the peripheral */
 519:Drivers/STM32L4xx_HAL_Driver/Src/stm32l4xx_hal_dma.c ****   __HAL_DMA_DISABLE(hdma);
 2065              		.loc 1 519 0 discriminator 2
 2066 002c FB68     		ldr	r3, [r7, #12]
 2067 002e 1B68     		ldr	r3, [r3]
 2068 0030 FA68     		ldr	r2, [r7, #12]
 2069 0032 1268     		ldr	r2, [r2]
 2070 0034 1268     		ldr	r2, [r2]
 2071 0036 22F00102 		bic	r2, r2, #1
 2072 003a 1A60     		str	r2, [r3]
 520:Drivers/STM32L4xx_HAL_Driver/Src/stm32l4xx_hal_dma.c **** 
 521:Drivers/STM32L4xx_HAL_Driver/Src/stm32l4xx_hal_dma.c ****   /* Configure the source, destination address and the data length */
 522:Drivers/STM32L4xx_HAL_Driver/Src/stm32l4xx_hal_dma.c ****   DMA_SetConfig(hdma, SrcAddress, DstAddress, DataLength);
 2073              		.loc 1 522 0 discriminator 2
 2074 003c F868     		ldr	r0, [r7, #12]
 2075 003e B968     		ldr	r1, [r7, #8]
 2076 0040 7A68     		ldr	r2, [r7, #4]
 2077 0042 3B68     		ldr	r3, [r7]
 2078 0044 FFF7FEFF 		bl	DMA_SetConfig
 523:Drivers/STM32L4xx_HAL_Driver/Src/stm32l4xx_hal_dma.c **** 
 524:Drivers/STM32L4xx_HAL_Driver/Src/stm32l4xx_hal_dma.c ****   /* Enable the Peripheral */
 525:Drivers/STM32L4xx_HAL_Driver/Src/stm32l4xx_hal_dma.c ****   __HAL_DMA_ENABLE(hdma);
 2079              		.loc 1 525 0 discriminator 2
 2080 0048 FB68     		ldr	r3, [r7, #12]
 2081 004a 1B68     		ldr	r3, [r3]
 2082 004c FA68     		ldr	r2, [r7, #12]
 2083 004e 1268     		ldr	r2, [r2]
 2084 0050 1268     		ldr	r2, [r2]
 2085 0052 42F00102 		orr	r2, r2, #1
 2086 0056 1A60     		str	r2, [r3]
 526:Drivers/STM32L4xx_HAL_Driver/Src/stm32l4xx_hal_dma.c **** 
 527:Drivers/STM32L4xx_HAL_Driver/Src/stm32l4xx_hal_dma.c ****   return HAL_OK;
 2087              		.loc 1 527 0 discriminator 2
 2088 0058 0023     		movs	r3, #0
 2089              	.L249:
 528:Drivers/STM32L4xx_HAL_Driver/Src/stm32l4xx_hal_dma.c **** }
 2090              		.loc 1 528 0
 2091 005a 1846     		mov	r0, r3
 2092 005c 1037     		adds	r7, r7, #16
 2093              	.LCFI15:
 2094              		.cfi_def_cfa_offset 8
 2095 005e BD46     		mov	sp, r7
ARM GAS  /tmp/cccQDy3L.s 			page 47


 2096              	.LCFI16:
 2097              		.cfi_def_cfa_register 13
 2098              		@ sp needed
 2099 0060 80BD     		pop	{r7, pc}
 2100              		.cfi_endproc
 2101              	.LFE127:
 2103 0062 00BF     		.section	.text.HAL_DMA_Start_IT,"ax",%progbits
 2104              		.align	2
 2105              		.global	HAL_DMA_Start_IT
 2106              		.thumb
 2107              		.thumb_func
 2109              	HAL_DMA_Start_IT:
 2110              	.LFB128:
 529:Drivers/STM32L4xx_HAL_Driver/Src/stm32l4xx_hal_dma.c **** 
 530:Drivers/STM32L4xx_HAL_Driver/Src/stm32l4xx_hal_dma.c **** /**
 531:Drivers/STM32L4xx_HAL_Driver/Src/stm32l4xx_hal_dma.c ****   * @brief  Start the DMA Transfer with interrupt enabled.
 532:Drivers/STM32L4xx_HAL_Driver/Src/stm32l4xx_hal_dma.c ****   * @param  hdma: pointer to a DMA_HandleTypeDef structure that contains
 533:Drivers/STM32L4xx_HAL_Driver/Src/stm32l4xx_hal_dma.c ****   *               the configuration information for the specified DMA Channel.
 534:Drivers/STM32L4xx_HAL_Driver/Src/stm32l4xx_hal_dma.c ****   * @param  SrcAddress: The source memory Buffer address
 535:Drivers/STM32L4xx_HAL_Driver/Src/stm32l4xx_hal_dma.c ****   * @param  DstAddress: The destination memory Buffer address
 536:Drivers/STM32L4xx_HAL_Driver/Src/stm32l4xx_hal_dma.c ****   * @param  DataLength: The length of data to be transferred from source to destination
 537:Drivers/STM32L4xx_HAL_Driver/Src/stm32l4xx_hal_dma.c ****   * @retval HAL status
 538:Drivers/STM32L4xx_HAL_Driver/Src/stm32l4xx_hal_dma.c ****   */
 539:Drivers/STM32L4xx_HAL_Driver/Src/stm32l4xx_hal_dma.c **** HAL_StatusTypeDef HAL_DMA_Start_IT(DMA_HandleTypeDef *hdma, uint32_t SrcAddress, uint32_t DstAddres
 540:Drivers/STM32L4xx_HAL_Driver/Src/stm32l4xx_hal_dma.c **** {
 2111              		.loc 1 540 0
 2112              		.cfi_startproc
 2113              		@ args = 0, pretend = 0, frame = 16
 2114              		@ frame_needed = 1, uses_anonymous_args = 0
 2115 0000 80B5     		push	{r7, lr}
 2116              	.LCFI17:
 2117              		.cfi_def_cfa_offset 8
 2118              		.cfi_offset 7, -8
 2119              		.cfi_offset 14, -4
 2120 0002 84B0     		sub	sp, sp, #16
 2121              	.LCFI18:
 2122              		.cfi_def_cfa_offset 24
 2123 0004 00AF     		add	r7, sp, #0
 2124              	.LCFI19:
 2125              		.cfi_def_cfa_register 7
 2126 0006 F860     		str	r0, [r7, #12]
 2127 0008 B960     		str	r1, [r7, #8]
 2128 000a 7A60     		str	r2, [r7, #4]
 2129 000c 3B60     		str	r3, [r7]
 541:Drivers/STM32L4xx_HAL_Driver/Src/stm32l4xx_hal_dma.c ****   /* Process locked */
 542:Drivers/STM32L4xx_HAL_Driver/Src/stm32l4xx_hal_dma.c ****   __HAL_LOCK(hdma);
 2130              		.loc 1 542 0
 2131 000e FB68     		ldr	r3, [r7, #12]
 2132 0010 93F82430 		ldrb	r3, [r3, #36]	@ zero_extendqisi2
 2133 0014 012B     		cmp	r3, #1
 2134 0016 01D1     		bne	.L251
 2135              		.loc 1 542 0 is_stmt 0 discriminator 1
 2136 0018 0223     		movs	r3, #2
 2137 001a 26E0     		b	.L252
 2138              	.L251:
 2139              		.loc 1 542 0 discriminator 2
 2140 001c FB68     		ldr	r3, [r7, #12]
ARM GAS  /tmp/cccQDy3L.s 			page 48


 2141 001e 0122     		movs	r2, #1
 2142 0020 83F82420 		strb	r2, [r3, #36]
 543:Drivers/STM32L4xx_HAL_Driver/Src/stm32l4xx_hal_dma.c **** 
 544:Drivers/STM32L4xx_HAL_Driver/Src/stm32l4xx_hal_dma.c ****   /* Change DMA peripheral state */
 545:Drivers/STM32L4xx_HAL_Driver/Src/stm32l4xx_hal_dma.c ****   hdma->State = HAL_DMA_STATE_BUSY;
 2143              		.loc 1 545 0 is_stmt 1 discriminator 2
 2144 0024 FB68     		ldr	r3, [r7, #12]
 2145 0026 0222     		movs	r2, #2
 2146 0028 83F82520 		strb	r2, [r3, #37]
 546:Drivers/STM32L4xx_HAL_Driver/Src/stm32l4xx_hal_dma.c **** 
 547:Drivers/STM32L4xx_HAL_Driver/Src/stm32l4xx_hal_dma.c ****    /* Check the parameters */
 548:Drivers/STM32L4xx_HAL_Driver/Src/stm32l4xx_hal_dma.c ****   assert_param(IS_DMA_BUFFER_SIZE(DataLength));
 549:Drivers/STM32L4xx_HAL_Driver/Src/stm32l4xx_hal_dma.c **** 
 550:Drivers/STM32L4xx_HAL_Driver/Src/stm32l4xx_hal_dma.c ****   /* Disable the peripheral */
 551:Drivers/STM32L4xx_HAL_Driver/Src/stm32l4xx_hal_dma.c ****   __HAL_DMA_DISABLE(hdma);
 2147              		.loc 1 551 0 discriminator 2
 2148 002c FB68     		ldr	r3, [r7, #12]
 2149 002e 1B68     		ldr	r3, [r3]
 2150 0030 FA68     		ldr	r2, [r7, #12]
 2151 0032 1268     		ldr	r2, [r2]
 2152 0034 1268     		ldr	r2, [r2]
 2153 0036 22F00102 		bic	r2, r2, #1
 2154 003a 1A60     		str	r2, [r3]
 552:Drivers/STM32L4xx_HAL_Driver/Src/stm32l4xx_hal_dma.c **** 
 553:Drivers/STM32L4xx_HAL_Driver/Src/stm32l4xx_hal_dma.c ****   /* Configure the source, destination address and the data length */
 554:Drivers/STM32L4xx_HAL_Driver/Src/stm32l4xx_hal_dma.c ****   DMA_SetConfig(hdma, SrcAddress, DstAddress, DataLength);
 2155              		.loc 1 554 0 discriminator 2
 2156 003c F868     		ldr	r0, [r7, #12]
 2157 003e B968     		ldr	r1, [r7, #8]
 2158 0040 7A68     		ldr	r2, [r7, #4]
 2159 0042 3B68     		ldr	r3, [r7]
 2160 0044 FFF7FEFF 		bl	DMA_SetConfig
 555:Drivers/STM32L4xx_HAL_Driver/Src/stm32l4xx_hal_dma.c **** 
 556:Drivers/STM32L4xx_HAL_Driver/Src/stm32l4xx_hal_dma.c ****   /* Enable the transfer complete interrupt */
 557:Drivers/STM32L4xx_HAL_Driver/Src/stm32l4xx_hal_dma.c ****   /* Enable the Half transfer complete interrupt */
 558:Drivers/STM32L4xx_HAL_Driver/Src/stm32l4xx_hal_dma.c ****   /* Enable the transfer Error interrupt */
 559:Drivers/STM32L4xx_HAL_Driver/Src/stm32l4xx_hal_dma.c ****   __HAL_DMA_ENABLE_IT(hdma, (DMA_IT_TC | DMA_IT_HT | DMA_IT_TE));
 2161              		.loc 1 559 0 discriminator 2
 2162 0048 FB68     		ldr	r3, [r7, #12]
 2163 004a 1B68     		ldr	r3, [r3]
 2164 004c FA68     		ldr	r2, [r7, #12]
 2165 004e 1268     		ldr	r2, [r2]
 2166 0050 1268     		ldr	r2, [r2]
 2167 0052 42F00E02 		orr	r2, r2, #14
 2168 0056 1A60     		str	r2, [r3]
 560:Drivers/STM32L4xx_HAL_Driver/Src/stm32l4xx_hal_dma.c **** 
 561:Drivers/STM32L4xx_HAL_Driver/Src/stm32l4xx_hal_dma.c ****    /* Enable the Peripheral */
 562:Drivers/STM32L4xx_HAL_Driver/Src/stm32l4xx_hal_dma.c ****   __HAL_DMA_ENABLE(hdma);
 2169              		.loc 1 562 0 discriminator 2
 2170 0058 FB68     		ldr	r3, [r7, #12]
 2171 005a 1B68     		ldr	r3, [r3]
 2172 005c FA68     		ldr	r2, [r7, #12]
 2173 005e 1268     		ldr	r2, [r2]
 2174 0060 1268     		ldr	r2, [r2]
 2175 0062 42F00102 		orr	r2, r2, #1
 2176 0066 1A60     		str	r2, [r3]
 563:Drivers/STM32L4xx_HAL_Driver/Src/stm32l4xx_hal_dma.c **** 
ARM GAS  /tmp/cccQDy3L.s 			page 49


 564:Drivers/STM32L4xx_HAL_Driver/Src/stm32l4xx_hal_dma.c ****   return HAL_OK;
 2177              		.loc 1 564 0 discriminator 2
 2178 0068 0023     		movs	r3, #0
 2179              	.L252:
 565:Drivers/STM32L4xx_HAL_Driver/Src/stm32l4xx_hal_dma.c **** }
 2180              		.loc 1 565 0
 2181 006a 1846     		mov	r0, r3
 2182 006c 1037     		adds	r7, r7, #16
 2183              	.LCFI20:
 2184              		.cfi_def_cfa_offset 8
 2185 006e BD46     		mov	sp, r7
 2186              	.LCFI21:
 2187              		.cfi_def_cfa_register 13
 2188              		@ sp needed
 2189 0070 80BD     		pop	{r7, pc}
 2190              		.cfi_endproc
 2191              	.LFE128:
 2193 0072 00BF     		.section	.text.HAL_DMA_Abort,"ax",%progbits
 2194              		.align	2
 2195              		.global	HAL_DMA_Abort
 2196              		.thumb
 2197              		.thumb_func
 2199              	HAL_DMA_Abort:
 2200              	.LFB129:
 566:Drivers/STM32L4xx_HAL_Driver/Src/stm32l4xx_hal_dma.c **** 
 567:Drivers/STM32L4xx_HAL_Driver/Src/stm32l4xx_hal_dma.c **** /**
 568:Drivers/STM32L4xx_HAL_Driver/Src/stm32l4xx_hal_dma.c ****   * @brief  Abort the DMA Transfer.
 569:Drivers/STM32L4xx_HAL_Driver/Src/stm32l4xx_hal_dma.c ****   * @param  hdma: pointer to a DMA_HandleTypeDef structure that contains
 570:Drivers/STM32L4xx_HAL_Driver/Src/stm32l4xx_hal_dma.c ****   *               the configuration information for the specified DMA Channel.
 571:Drivers/STM32L4xx_HAL_Driver/Src/stm32l4xx_hal_dma.c ****   *                   
 572:Drivers/STM32L4xx_HAL_Driver/Src/stm32l4xx_hal_dma.c ****   * @note  After disabling a DMA Channel, a check for wait until the DMA Channel is 
 573:Drivers/STM32L4xx_HAL_Driver/Src/stm32l4xx_hal_dma.c ****   *        effectively disabled is added. If a Channel is disabled 
 574:Drivers/STM32L4xx_HAL_Driver/Src/stm32l4xx_hal_dma.c ****   *        while a data transfer is ongoing, the current data will be transferred
 575:Drivers/STM32L4xx_HAL_Driver/Src/stm32l4xx_hal_dma.c ****   *        and the Channel will be effectively disabled only after the transfer of
 576:Drivers/STM32L4xx_HAL_Driver/Src/stm32l4xx_hal_dma.c ****   *        this single data is finished.  
 577:Drivers/STM32L4xx_HAL_Driver/Src/stm32l4xx_hal_dma.c ****   * @retval HAL status
 578:Drivers/STM32L4xx_HAL_Driver/Src/stm32l4xx_hal_dma.c ****   */
 579:Drivers/STM32L4xx_HAL_Driver/Src/stm32l4xx_hal_dma.c **** HAL_StatusTypeDef HAL_DMA_Abort(DMA_HandleTypeDef *hdma)
 580:Drivers/STM32L4xx_HAL_Driver/Src/stm32l4xx_hal_dma.c **** {
 2201              		.loc 1 580 0
 2202              		.cfi_startproc
 2203              		@ args = 0, pretend = 0, frame = 16
 2204              		@ frame_needed = 1, uses_anonymous_args = 0
 2205 0000 80B5     		push	{r7, lr}
 2206              	.LCFI22:
 2207              		.cfi_def_cfa_offset 8
 2208              		.cfi_offset 7, -8
 2209              		.cfi_offset 14, -4
 2210 0002 84B0     		sub	sp, sp, #16
 2211              	.LCFI23:
 2212              		.cfi_def_cfa_offset 24
 2213 0004 00AF     		add	r7, sp, #0
 2214              	.LCFI24:
 2215              		.cfi_def_cfa_register 7
 2216 0006 7860     		str	r0, [r7, #4]
 581:Drivers/STM32L4xx_HAL_Driver/Src/stm32l4xx_hal_dma.c ****   uint32_t tickstart = 0;
 2217              		.loc 1 581 0
ARM GAS  /tmp/cccQDy3L.s 			page 50


 2218 0008 0023     		movs	r3, #0
 2219 000a FB60     		str	r3, [r7, #12]
 582:Drivers/STM32L4xx_HAL_Driver/Src/stm32l4xx_hal_dma.c **** 
 583:Drivers/STM32L4xx_HAL_Driver/Src/stm32l4xx_hal_dma.c ****   /* Disable the channel */
 584:Drivers/STM32L4xx_HAL_Driver/Src/stm32l4xx_hal_dma.c ****   __HAL_DMA_DISABLE(hdma);
 2220              		.loc 1 584 0
 2221 000c 7B68     		ldr	r3, [r7, #4]
 2222 000e 1B68     		ldr	r3, [r3]
 2223 0010 7A68     		ldr	r2, [r7, #4]
 2224 0012 1268     		ldr	r2, [r2]
 2225 0014 1268     		ldr	r2, [r2]
 2226 0016 22F00102 		bic	r2, r2, #1
 2227 001a 1A60     		str	r2, [r3]
 585:Drivers/STM32L4xx_HAL_Driver/Src/stm32l4xx_hal_dma.c **** 
 586:Drivers/STM32L4xx_HAL_Driver/Src/stm32l4xx_hal_dma.c ****   /* Get tick */
 587:Drivers/STM32L4xx_HAL_Driver/Src/stm32l4xx_hal_dma.c ****   tickstart = HAL_GetTick();
 2228              		.loc 1 587 0
 2229 001c FFF7FEFF 		bl	HAL_GetTick
 2230 0020 F860     		str	r0, [r7, #12]
 588:Drivers/STM32L4xx_HAL_Driver/Src/stm32l4xx_hal_dma.c **** 
 589:Drivers/STM32L4xx_HAL_Driver/Src/stm32l4xx_hal_dma.c ****   /* Check if the DMA Channel is effectively disabled */
 590:Drivers/STM32L4xx_HAL_Driver/Src/stm32l4xx_hal_dma.c ****   while((hdma->Instance->CCR & DMA_CCR_EN) != 0)
 2231              		.loc 1 590 0
 2232 0022 17E0     		b	.L254
 2233              	.L256:
 591:Drivers/STM32L4xx_HAL_Driver/Src/stm32l4xx_hal_dma.c ****   {
 592:Drivers/STM32L4xx_HAL_Driver/Src/stm32l4xx_hal_dma.c ****     /* Check for the Timeout */
 593:Drivers/STM32L4xx_HAL_Driver/Src/stm32l4xx_hal_dma.c ****     if((HAL_GetTick() - tickstart) > HAL_TIMEOUT_DMA_ABORT)
 2234              		.loc 1 593 0
 2235 0024 FFF7FEFF 		bl	HAL_GetTick
 2236 0028 0246     		mov	r2, r0
 2237 002a FB68     		ldr	r3, [r7, #12]
 2238 002c D31A     		subs	r3, r2, r3
 2239 002e B3F57A7F 		cmp	r3, #1000
 2240 0032 0FD9     		bls	.L254
 594:Drivers/STM32L4xx_HAL_Driver/Src/stm32l4xx_hal_dma.c ****     {
 595:Drivers/STM32L4xx_HAL_Driver/Src/stm32l4xx_hal_dma.c ****       /* Update error code */
 596:Drivers/STM32L4xx_HAL_Driver/Src/stm32l4xx_hal_dma.c ****       hdma->ErrorCode |= HAL_DMA_ERROR_TIMEOUT;
 2241              		.loc 1 596 0
 2242 0034 7B68     		ldr	r3, [r7, #4]
 2243 0036 9B6B     		ldr	r3, [r3, #56]
 2244 0038 43F02002 		orr	r2, r3, #32
 2245 003c 7B68     		ldr	r3, [r7, #4]
 2246 003e 9A63     		str	r2, [r3, #56]
 597:Drivers/STM32L4xx_HAL_Driver/Src/stm32l4xx_hal_dma.c **** 
 598:Drivers/STM32L4xx_HAL_Driver/Src/stm32l4xx_hal_dma.c ****       /* Change the DMA state */
 599:Drivers/STM32L4xx_HAL_Driver/Src/stm32l4xx_hal_dma.c ****       hdma->State = HAL_DMA_STATE_TIMEOUT;
 2247              		.loc 1 599 0
 2248 0040 7B68     		ldr	r3, [r7, #4]
 2249 0042 0322     		movs	r2, #3
 2250 0044 83F82520 		strb	r2, [r3, #37]
 600:Drivers/STM32L4xx_HAL_Driver/Src/stm32l4xx_hal_dma.c **** 
 601:Drivers/STM32L4xx_HAL_Driver/Src/stm32l4xx_hal_dma.c ****       /* Process Unlocked */
 602:Drivers/STM32L4xx_HAL_Driver/Src/stm32l4xx_hal_dma.c ****       __HAL_UNLOCK(hdma);
 2251              		.loc 1 602 0
 2252 0048 7B68     		ldr	r3, [r7, #4]
 2253 004a 0022     		movs	r2, #0
ARM GAS  /tmp/cccQDy3L.s 			page 51


 2254 004c 83F82420 		strb	r2, [r3, #36]
 603:Drivers/STM32L4xx_HAL_Driver/Src/stm32l4xx_hal_dma.c **** 
 604:Drivers/STM32L4xx_HAL_Driver/Src/stm32l4xx_hal_dma.c ****       return HAL_TIMEOUT;
 2255              		.loc 1 604 0
 2256 0050 0323     		movs	r3, #3
 2257 0052 0FE0     		b	.L255
 2258              	.L254:
 590:Drivers/STM32L4xx_HAL_Driver/Src/stm32l4xx_hal_dma.c ****   {
 2259              		.loc 1 590 0
 2260 0054 7B68     		ldr	r3, [r7, #4]
 2261 0056 1B68     		ldr	r3, [r3]
 2262 0058 1B68     		ldr	r3, [r3]
 2263 005a 03F00103 		and	r3, r3, #1
 2264 005e 002B     		cmp	r3, #0
 2265 0060 E0D1     		bne	.L256
 605:Drivers/STM32L4xx_HAL_Driver/Src/stm32l4xx_hal_dma.c ****     }
 606:Drivers/STM32L4xx_HAL_Driver/Src/stm32l4xx_hal_dma.c ****   }
 607:Drivers/STM32L4xx_HAL_Driver/Src/stm32l4xx_hal_dma.c ****   /* Change the DMA state */
 608:Drivers/STM32L4xx_HAL_Driver/Src/stm32l4xx_hal_dma.c ****   hdma->State = HAL_DMA_STATE_READY;
 2266              		.loc 1 608 0
 2267 0062 7B68     		ldr	r3, [r7, #4]
 2268 0064 0122     		movs	r2, #1
 2269 0066 83F82520 		strb	r2, [r3, #37]
 609:Drivers/STM32L4xx_HAL_Driver/Src/stm32l4xx_hal_dma.c ****   
 610:Drivers/STM32L4xx_HAL_Driver/Src/stm32l4xx_hal_dma.c ****   /* Process Unlocked */
 611:Drivers/STM32L4xx_HAL_Driver/Src/stm32l4xx_hal_dma.c ****   __HAL_UNLOCK(hdma);
 2270              		.loc 1 611 0
 2271 006a 7B68     		ldr	r3, [r7, #4]
 2272 006c 0022     		movs	r2, #0
 2273 006e 83F82420 		strb	r2, [r3, #36]
 612:Drivers/STM32L4xx_HAL_Driver/Src/stm32l4xx_hal_dma.c ****   
 613:Drivers/STM32L4xx_HAL_Driver/Src/stm32l4xx_hal_dma.c ****   return HAL_OK; 
 2274              		.loc 1 613 0
 2275 0072 0023     		movs	r3, #0
 2276              	.L255:
 614:Drivers/STM32L4xx_HAL_Driver/Src/stm32l4xx_hal_dma.c **** }
 2277              		.loc 1 614 0
 2278 0074 1846     		mov	r0, r3
 2279 0076 1037     		adds	r7, r7, #16
 2280              	.LCFI25:
 2281              		.cfi_def_cfa_offset 8
 2282 0078 BD46     		mov	sp, r7
 2283              	.LCFI26:
 2284              		.cfi_def_cfa_register 13
 2285              		@ sp needed
 2286 007a 80BD     		pop	{r7, pc}
 2287              		.cfi_endproc
 2288              	.LFE129:
 2290              		.section	.text.HAL_DMA_PollForTransfer,"ax",%progbits
 2291              		.align	2
 2292              		.global	HAL_DMA_PollForTransfer
 2293              		.thumb
 2294              		.thumb_func
 2296              	HAL_DMA_PollForTransfer:
 2297              	.LFB130:
 615:Drivers/STM32L4xx_HAL_Driver/Src/stm32l4xx_hal_dma.c **** 
 616:Drivers/STM32L4xx_HAL_Driver/Src/stm32l4xx_hal_dma.c **** /**
ARM GAS  /tmp/cccQDy3L.s 			page 52


 617:Drivers/STM32L4xx_HAL_Driver/Src/stm32l4xx_hal_dma.c ****   * @brief  Polling for transfer complete.
 618:Drivers/STM32L4xx_HAL_Driver/Src/stm32l4xx_hal_dma.c ****   * @param  hdma:    pointer to a DMA_HandleTypeDef structure that contains
 619:Drivers/STM32L4xx_HAL_Driver/Src/stm32l4xx_hal_dma.c ****   *                  the configuration information for the specified DMA Channel.
 620:Drivers/STM32L4xx_HAL_Driver/Src/stm32l4xx_hal_dma.c ****   * @param  CompleteLevel: Specifies the DMA level complete.
 621:Drivers/STM32L4xx_HAL_Driver/Src/stm32l4xx_hal_dma.c ****   * @param  Timeout:       Timeout duration.
 622:Drivers/STM32L4xx_HAL_Driver/Src/stm32l4xx_hal_dma.c ****   * @retval HAL status
 623:Drivers/STM32L4xx_HAL_Driver/Src/stm32l4xx_hal_dma.c ****   */
 624:Drivers/STM32L4xx_HAL_Driver/Src/stm32l4xx_hal_dma.c **** HAL_StatusTypeDef HAL_DMA_PollForTransfer(DMA_HandleTypeDef *hdma, uint32_t CompleteLevel, uint32_t
 625:Drivers/STM32L4xx_HAL_Driver/Src/stm32l4xx_hal_dma.c **** {
 2298              		.loc 1 625 0
 2299              		.cfi_startproc
 2300              		@ args = 0, pretend = 0, frame = 24
 2301              		@ frame_needed = 1, uses_anonymous_args = 0
 2302 0000 80B5     		push	{r7, lr}
 2303              	.LCFI27:
 2304              		.cfi_def_cfa_offset 8
 2305              		.cfi_offset 7, -8
 2306              		.cfi_offset 14, -4
 2307 0002 86B0     		sub	sp, sp, #24
 2308              	.LCFI28:
 2309              		.cfi_def_cfa_offset 32
 2310 0004 00AF     		add	r7, sp, #0
 2311              	.LCFI29:
 2312              		.cfi_def_cfa_register 7
 2313 0006 F860     		str	r0, [r7, #12]
 2314 0008 B960     		str	r1, [r7, #8]
 2315 000a 7A60     		str	r2, [r7, #4]
 626:Drivers/STM32L4xx_HAL_Driver/Src/stm32l4xx_hal_dma.c ****   uint32_t temp;
 627:Drivers/STM32L4xx_HAL_Driver/Src/stm32l4xx_hal_dma.c ****   uint32_t tickstart = 0;
 2316              		.loc 1 627 0
 2317 000c 0023     		movs	r3, #0
 2318 000e 3B61     		str	r3, [r7, #16]
 628:Drivers/STM32L4xx_HAL_Driver/Src/stm32l4xx_hal_dma.c **** 
 629:Drivers/STM32L4xx_HAL_Driver/Src/stm32l4xx_hal_dma.c ****   /* Get the level transfer complete flag */
 630:Drivers/STM32L4xx_HAL_Driver/Src/stm32l4xx_hal_dma.c ****   if(CompleteLevel == HAL_DMA_FULL_TRANSFER)
 2319              		.loc 1 630 0
 2320 0010 BB68     		ldr	r3, [r7, #8]
 2321 0012 002B     		cmp	r3, #0
 2322 0014 6BD1     		bne	.L258
 631:Drivers/STM32L4xx_HAL_Driver/Src/stm32l4xx_hal_dma.c ****   {
 632:Drivers/STM32L4xx_HAL_Driver/Src/stm32l4xx_hal_dma.c ****     /* Transfer Complete flag */
 633:Drivers/STM32L4xx_HAL_Driver/Src/stm32l4xx_hal_dma.c ****     temp = __HAL_DMA_GET_TC_FLAG_INDEX(hdma);
 2323              		.loc 1 633 0
 2324 0016 FB68     		ldr	r3, [r7, #12]
 2325 0018 1B68     		ldr	r3, [r3]
 2326 001a 1A46     		mov	r2, r3
 2327 001c A04B     		ldr	r3, .L517
 2328 001e 9A42     		cmp	r2, r3
 2329 0020 62D0     		beq	.L259
 2330              		.loc 1 633 0 is_stmt 0 discriminator 1
 2331 0022 FB68     		ldr	r3, [r7, #12]
 2332 0024 1B68     		ldr	r3, [r3]
 2333 0026 1A46     		mov	r2, r3
 2334 0028 9E4B     		ldr	r3, .L517+4
 2335 002a 9A42     		cmp	r2, r3
 2336 002c 5AD0     		beq	.L260
 2337              		.loc 1 633 0 discriminator 3
ARM GAS  /tmp/cccQDy3L.s 			page 53


 2338 002e FB68     		ldr	r3, [r7, #12]
 2339 0030 1B68     		ldr	r3, [r3]
 2340 0032 1A46     		mov	r2, r3
 2341 0034 9C4B     		ldr	r3, .L517+8
 2342 0036 9A42     		cmp	r2, r3
 2343 0038 52D0     		beq	.L261
 2344              		.loc 1 633 0 discriminator 5
 2345 003a FB68     		ldr	r3, [r7, #12]
 2346 003c 1B68     		ldr	r3, [r3]
 2347 003e 1A46     		mov	r2, r3
 2348 0040 9A4B     		ldr	r3, .L517+12
 2349 0042 9A42     		cmp	r2, r3
 2350 0044 4AD0     		beq	.L262
 2351              		.loc 1 633 0 discriminator 7
 2352 0046 FB68     		ldr	r3, [r7, #12]
 2353 0048 1B68     		ldr	r3, [r3]
 2354 004a 1A46     		mov	r2, r3
 2355 004c 984B     		ldr	r3, .L517+16
 2356 004e 9A42     		cmp	r2, r3
 2357 0050 41D0     		beq	.L263
 2358              		.loc 1 633 0 discriminator 9
 2359 0052 FB68     		ldr	r3, [r7, #12]
 2360 0054 1B68     		ldr	r3, [r3]
 2361 0056 1A46     		mov	r2, r3
 2362 0058 964B     		ldr	r3, .L517+20
 2363 005a 9A42     		cmp	r2, r3
 2364 005c 38D0     		beq	.L264
 2365              		.loc 1 633 0 discriminator 11
 2366 005e FB68     		ldr	r3, [r7, #12]
 2367 0060 1B68     		ldr	r3, [r3]
 2368 0062 1A46     		mov	r2, r3
 2369 0064 944B     		ldr	r3, .L517+24
 2370 0066 9A42     		cmp	r2, r3
 2371 0068 2FD0     		beq	.L265
 2372              		.loc 1 633 0 discriminator 13
 2373 006a FB68     		ldr	r3, [r7, #12]
 2374 006c 1B68     		ldr	r3, [r3]
 2375 006e 1A46     		mov	r2, r3
 2376 0070 924B     		ldr	r3, .L517+28
 2377 0072 9A42     		cmp	r2, r3
 2378 0074 26D0     		beq	.L266
 2379              		.loc 1 633 0 discriminator 15
 2380 0076 FB68     		ldr	r3, [r7, #12]
 2381 0078 1B68     		ldr	r3, [r3]
 2382 007a 1A46     		mov	r2, r3
 2383 007c 904B     		ldr	r3, .L517+32
 2384 007e 9A42     		cmp	r2, r3
 2385 0080 1DD0     		beq	.L267
 2386              		.loc 1 633 0 discriminator 17
 2387 0082 FB68     		ldr	r3, [r7, #12]
 2388 0084 1B68     		ldr	r3, [r3]
 2389 0086 1A46     		mov	r2, r3
 2390 0088 8E4B     		ldr	r3, .L517+36
 2391 008a 9A42     		cmp	r2, r3
 2392 008c 14D0     		beq	.L268
 2393              		.loc 1 633 0 discriminator 19
 2394 008e FB68     		ldr	r3, [r7, #12]
ARM GAS  /tmp/cccQDy3L.s 			page 54


 2395 0090 1B68     		ldr	r3, [r3]
 2396 0092 1A46     		mov	r2, r3
 2397 0094 8C4B     		ldr	r3, .L517+40
 2398 0096 9A42     		cmp	r2, r3
 2399 0098 0BD0     		beq	.L269
 2400              		.loc 1 633 0 discriminator 21
 2401 009a FB68     		ldr	r3, [r7, #12]
 2402 009c 1B68     		ldr	r3, [r3]
 2403 009e 1A46     		mov	r2, r3
 2404 00a0 8A4B     		ldr	r3, .L517+44
 2405 00a2 9A42     		cmp	r2, r3
 2406 00a4 02D1     		bne	.L270
 2407              		.loc 1 633 0 discriminator 23
 2408 00a6 4FF40013 		mov	r3, #2097152
 2409 00aa 1EE0     		b	.L282
 2410              	.L270:
 2411              		.loc 1 633 0 discriminator 24
 2412 00ac 4FF00073 		mov	r3, #33554432
 2413 00b0 1BE0     		b	.L282
 2414              	.L269:
 2415              		.loc 1 633 0 discriminator 22
 2416 00b2 4FF40013 		mov	r3, #2097152
 2417 00b6 18E0     		b	.L282
 2418              	.L268:
 2419              		.loc 1 633 0 discriminator 20
 2420 00b8 4FF40033 		mov	r3, #131072
 2421 00bc 15E0     		b	.L282
 2422              	.L267:
 2423              		.loc 1 633 0 discriminator 18
 2424 00be 4FF40033 		mov	r3, #131072
 2425 00c2 12E0     		b	.L282
 2426              	.L266:
 2427              		.loc 1 633 0 discriminator 16
 2428 00c4 4FF40053 		mov	r3, #8192
 2429 00c8 0FE0     		b	.L282
 2430              	.L265:
 2431              		.loc 1 633 0 discriminator 14
 2432 00ca 4FF40053 		mov	r3, #8192
 2433 00ce 0CE0     		b	.L282
 2434              	.L264:
 2435              		.loc 1 633 0 discriminator 12
 2436 00d0 4FF40073 		mov	r3, #512
 2437 00d4 09E0     		b	.L282
 2438              	.L263:
 2439              		.loc 1 633 0 discriminator 10
 2440 00d6 4FF40073 		mov	r3, #512
 2441 00da 06E0     		b	.L282
 2442              	.L262:
 2443              		.loc 1 633 0 discriminator 8
 2444 00dc 2023     		movs	r3, #32
 2445 00de 04E0     		b	.L282
 2446              	.L261:
 2447              		.loc 1 633 0 discriminator 6
 2448 00e0 2023     		movs	r3, #32
 2449 00e2 02E0     		b	.L282
 2450              	.L260:
 2451              		.loc 1 633 0 discriminator 4
ARM GAS  /tmp/cccQDy3L.s 			page 55


 2452 00e4 0223     		movs	r3, #2
 2453 00e6 00E0     		b	.L282
 2454              	.L259:
 2455              		.loc 1 633 0 discriminator 2
 2456 00e8 0223     		movs	r3, #2
 2457              	.L282:
 2458              		.loc 1 633 0 discriminator 48
 2459 00ea 7B61     		str	r3, [r7, #20]
 2460 00ec 6AE0     		b	.L283
 2461              	.L258:
 634:Drivers/STM32L4xx_HAL_Driver/Src/stm32l4xx_hal_dma.c ****   }
 635:Drivers/STM32L4xx_HAL_Driver/Src/stm32l4xx_hal_dma.c ****   else
 636:Drivers/STM32L4xx_HAL_Driver/Src/stm32l4xx_hal_dma.c ****   {
 637:Drivers/STM32L4xx_HAL_Driver/Src/stm32l4xx_hal_dma.c ****     /* Half Transfer Complete flag */
 638:Drivers/STM32L4xx_HAL_Driver/Src/stm32l4xx_hal_dma.c ****     temp = __HAL_DMA_GET_HT_FLAG_INDEX(hdma);
 2462              		.loc 1 638 0 is_stmt 1
 2463 00ee FB68     		ldr	r3, [r7, #12]
 2464 00f0 1B68     		ldr	r3, [r3]
 2465 00f2 1A46     		mov	r2, r3
 2466 00f4 6A4B     		ldr	r3, .L517
 2467 00f6 9A42     		cmp	r2, r3
 2468 00f8 62D0     		beq	.L284
 2469              		.loc 1 638 0 is_stmt 0 discriminator 1
 2470 00fa FB68     		ldr	r3, [r7, #12]
 2471 00fc 1B68     		ldr	r3, [r3]
 2472 00fe 1A46     		mov	r2, r3
 2473 0100 684B     		ldr	r3, .L517+4
 2474 0102 9A42     		cmp	r2, r3
 2475 0104 5AD0     		beq	.L285
 2476              		.loc 1 638 0 discriminator 3
 2477 0106 FB68     		ldr	r3, [r7, #12]
 2478 0108 1B68     		ldr	r3, [r3]
 2479 010a 1A46     		mov	r2, r3
 2480 010c 664B     		ldr	r3, .L517+8
 2481 010e 9A42     		cmp	r2, r3
 2482 0110 52D0     		beq	.L286
 2483              		.loc 1 638 0 discriminator 5
 2484 0112 FB68     		ldr	r3, [r7, #12]
 2485 0114 1B68     		ldr	r3, [r3]
 2486 0116 1A46     		mov	r2, r3
 2487 0118 644B     		ldr	r3, .L517+12
 2488 011a 9A42     		cmp	r2, r3
 2489 011c 4AD0     		beq	.L287
 2490              		.loc 1 638 0 discriminator 7
 2491 011e FB68     		ldr	r3, [r7, #12]
 2492 0120 1B68     		ldr	r3, [r3]
 2493 0122 1A46     		mov	r2, r3
 2494 0124 624B     		ldr	r3, .L517+16
 2495 0126 9A42     		cmp	r2, r3
 2496 0128 41D0     		beq	.L288
 2497              		.loc 1 638 0 discriminator 9
 2498 012a FB68     		ldr	r3, [r7, #12]
 2499 012c 1B68     		ldr	r3, [r3]
 2500 012e 1A46     		mov	r2, r3
 2501 0130 604B     		ldr	r3, .L517+20
 2502 0132 9A42     		cmp	r2, r3
 2503 0134 38D0     		beq	.L289
ARM GAS  /tmp/cccQDy3L.s 			page 56


 2504              		.loc 1 638 0 discriminator 11
 2505 0136 FB68     		ldr	r3, [r7, #12]
 2506 0138 1B68     		ldr	r3, [r3]
 2507 013a 1A46     		mov	r2, r3
 2508 013c 5E4B     		ldr	r3, .L517+24
 2509 013e 9A42     		cmp	r2, r3
 2510 0140 2FD0     		beq	.L290
 2511              		.loc 1 638 0 discriminator 13
 2512 0142 FB68     		ldr	r3, [r7, #12]
 2513 0144 1B68     		ldr	r3, [r3]
 2514 0146 1A46     		mov	r2, r3
 2515 0148 5C4B     		ldr	r3, .L517+28
 2516 014a 9A42     		cmp	r2, r3
 2517 014c 26D0     		beq	.L291
 2518              		.loc 1 638 0 discriminator 15
 2519 014e FB68     		ldr	r3, [r7, #12]
 2520 0150 1B68     		ldr	r3, [r3]
 2521 0152 1A46     		mov	r2, r3
 2522 0154 5A4B     		ldr	r3, .L517+32
 2523 0156 9A42     		cmp	r2, r3
 2524 0158 1DD0     		beq	.L292
 2525              		.loc 1 638 0 discriminator 17
 2526 015a FB68     		ldr	r3, [r7, #12]
 2527 015c 1B68     		ldr	r3, [r3]
 2528 015e 1A46     		mov	r2, r3
 2529 0160 584B     		ldr	r3, .L517+36
 2530 0162 9A42     		cmp	r2, r3
 2531 0164 14D0     		beq	.L293
 2532              		.loc 1 638 0 discriminator 19
 2533 0166 FB68     		ldr	r3, [r7, #12]
 2534 0168 1B68     		ldr	r3, [r3]
 2535 016a 1A46     		mov	r2, r3
 2536 016c 564B     		ldr	r3, .L517+40
 2537 016e 9A42     		cmp	r2, r3
 2538 0170 0BD0     		beq	.L294
 2539              		.loc 1 638 0 discriminator 21
 2540 0172 FB68     		ldr	r3, [r7, #12]
 2541 0174 1B68     		ldr	r3, [r3]
 2542 0176 1A46     		mov	r2, r3
 2543 0178 544B     		ldr	r3, .L517+44
 2544 017a 9A42     		cmp	r2, r3
 2545 017c 02D1     		bne	.L295
 2546              		.loc 1 638 0 discriminator 23
 2547 017e 4FF48003 		mov	r3, #4194304
 2548 0182 1EE0     		b	.L307
 2549              	.L295:
 2550              		.loc 1 638 0 discriminator 24
 2551 0184 4FF08063 		mov	r3, #67108864
 2552 0188 1BE0     		b	.L307
 2553              	.L294:
 2554              		.loc 1 638 0 discriminator 22
 2555 018a 4FF48003 		mov	r3, #4194304
 2556 018e 18E0     		b	.L307
 2557              	.L293:
 2558              		.loc 1 638 0 discriminator 20
 2559 0190 4FF48023 		mov	r3, #262144
 2560 0194 15E0     		b	.L307
ARM GAS  /tmp/cccQDy3L.s 			page 57


 2561              	.L292:
 2562              		.loc 1 638 0 discriminator 18
 2563 0196 4FF48023 		mov	r3, #262144
 2564 019a 12E0     		b	.L307
 2565              	.L291:
 2566              		.loc 1 638 0 discriminator 16
 2567 019c 4FF48043 		mov	r3, #16384
 2568 01a0 0FE0     		b	.L307
 2569              	.L290:
 2570              		.loc 1 638 0 discriminator 14
 2571 01a2 4FF48043 		mov	r3, #16384
 2572 01a6 0CE0     		b	.L307
 2573              	.L289:
 2574              		.loc 1 638 0 discriminator 12
 2575 01a8 4FF48063 		mov	r3, #1024
 2576 01ac 09E0     		b	.L307
 2577              	.L288:
 2578              		.loc 1 638 0 discriminator 10
 2579 01ae 4FF48063 		mov	r3, #1024
 2580 01b2 06E0     		b	.L307
 2581              	.L287:
 2582              		.loc 1 638 0 discriminator 8
 2583 01b4 4023     		movs	r3, #64
 2584 01b6 04E0     		b	.L307
 2585              	.L286:
 2586              		.loc 1 638 0 discriminator 6
 2587 01b8 4023     		movs	r3, #64
 2588 01ba 02E0     		b	.L307
 2589              	.L285:
 2590              		.loc 1 638 0 discriminator 4
 2591 01bc 0423     		movs	r3, #4
 2592 01be 00E0     		b	.L307
 2593              	.L284:
 2594              		.loc 1 638 0 discriminator 2
 2595 01c0 0423     		movs	r3, #4
 2596              	.L307:
 2597              		.loc 1 638 0 discriminator 48
 2598 01c2 7B61     		str	r3, [r7, #20]
 2599              	.L283:
 639:Drivers/STM32L4xx_HAL_Driver/Src/stm32l4xx_hal_dma.c ****   }
 640:Drivers/STM32L4xx_HAL_Driver/Src/stm32l4xx_hal_dma.c **** 
 641:Drivers/STM32L4xx_HAL_Driver/Src/stm32l4xx_hal_dma.c ****   /* Get tick */
 642:Drivers/STM32L4xx_HAL_Driver/Src/stm32l4xx_hal_dma.c ****   tickstart = HAL_GetTick();
 2600              		.loc 1 642 0 is_stmt 1
 2601 01c4 FFF7FEFF 		bl	HAL_GetTick
 2602 01c8 3861     		str	r0, [r7, #16]
 643:Drivers/STM32L4xx_HAL_Driver/Src/stm32l4xx_hal_dma.c **** 
 644:Drivers/STM32L4xx_HAL_Driver/Src/stm32l4xx_hal_dma.c ****   while(__HAL_DMA_GET_FLAG(hdma, temp) == RESET)
 2603              		.loc 1 644 0
 2604 01ca 3FE2     		b	.L308
 2605              	.L414:
 645:Drivers/STM32L4xx_HAL_Driver/Src/stm32l4xx_hal_dma.c ****   {
 646:Drivers/STM32L4xx_HAL_Driver/Src/stm32l4xx_hal_dma.c ****     if((__HAL_DMA_GET_FLAG(hdma, __HAL_DMA_GET_TE_FLAG_INDEX(hdma)) != RESET))
 2606              		.loc 1 646 0
 2607 01cc FB68     		ldr	r3, [r7, #12]
 2608 01ce 1B68     		ldr	r3, [r3]
 2609 01d0 1A46     		mov	r2, r3
ARM GAS  /tmp/cccQDy3L.s 			page 58


 2610 01d2 3F4B     		ldr	r3, .L517+48
 2611 01d4 9A42     		cmp	r2, r3
 2612 01d6 40F29080 		bls	.L309
 2613              		.loc 1 646 0 is_stmt 0 discriminator 1
 2614 01da 3E4B     		ldr	r3, .L517+52
 2615 01dc 1A68     		ldr	r2, [r3]
 2616 01de FB68     		ldr	r3, [r7, #12]
 2617 01e0 1B68     		ldr	r3, [r3]
 2618 01e2 1946     		mov	r1, r3
 2619 01e4 2E4B     		ldr	r3, .L517
 2620 01e6 9942     		cmp	r1, r3
 2621 01e8 7FD0     		beq	.L310
 2622              		.loc 1 646 0 discriminator 3
 2623 01ea FB68     		ldr	r3, [r7, #12]
 2624 01ec 1B68     		ldr	r3, [r3]
 2625 01ee 1946     		mov	r1, r3
 2626 01f0 2C4B     		ldr	r3, .L517+4
 2627 01f2 9942     		cmp	r1, r3
 2628 01f4 77D0     		beq	.L311
 2629              		.loc 1 646 0 discriminator 5
 2630 01f6 FB68     		ldr	r3, [r7, #12]
 2631 01f8 1B68     		ldr	r3, [r3]
 2632 01fa 1946     		mov	r1, r3
 2633 01fc 2A4B     		ldr	r3, .L517+8
 2634 01fe 9942     		cmp	r1, r3
 2635 0200 6FD0     		beq	.L312
 2636              		.loc 1 646 0 discriminator 7
 2637 0202 FB68     		ldr	r3, [r7, #12]
 2638 0204 1B68     		ldr	r3, [r3]
 2639 0206 1946     		mov	r1, r3
 2640 0208 284B     		ldr	r3, .L517+12
 2641 020a 9942     		cmp	r1, r3
 2642 020c 67D0     		beq	.L313
 2643              		.loc 1 646 0 discriminator 9
 2644 020e FB68     		ldr	r3, [r7, #12]
 2645 0210 1B68     		ldr	r3, [r3]
 2646 0212 1946     		mov	r1, r3
 2647 0214 264B     		ldr	r3, .L517+16
 2648 0216 9942     		cmp	r1, r3
 2649 0218 5ED0     		beq	.L314
 2650              		.loc 1 646 0 discriminator 11
 2651 021a FB68     		ldr	r3, [r7, #12]
 2652 021c 1B68     		ldr	r3, [r3]
 2653 021e 1946     		mov	r1, r3
 2654 0220 244B     		ldr	r3, .L517+20
 2655 0222 9942     		cmp	r1, r3
 2656 0224 38D0     		beq	.L315
 2657              		.loc 1 646 0 discriminator 13
 2658 0226 FB68     		ldr	r3, [r7, #12]
 2659 0228 1B68     		ldr	r3, [r3]
 2660 022a 1946     		mov	r1, r3
 2661 022c 224B     		ldr	r3, .L517+24
 2662 022e 9942     		cmp	r1, r3
 2663 0230 2FD0     		beq	.L316
 2664              		.loc 1 646 0 discriminator 15
 2665 0232 FB68     		ldr	r3, [r7, #12]
 2666 0234 1B68     		ldr	r3, [r3]
ARM GAS  /tmp/cccQDy3L.s 			page 59


 2667 0236 1946     		mov	r1, r3
 2668 0238 204B     		ldr	r3, .L517+28
 2669 023a 9942     		cmp	r1, r3
 2670 023c 26D0     		beq	.L317
 2671              		.loc 1 646 0 discriminator 17
 2672 023e FB68     		ldr	r3, [r7, #12]
 2673 0240 1B68     		ldr	r3, [r3]
 2674 0242 1946     		mov	r1, r3
 2675 0244 1E4B     		ldr	r3, .L517+32
 2676 0246 9942     		cmp	r1, r3
 2677 0248 1DD0     		beq	.L318
 2678              		.loc 1 646 0 discriminator 19
 2679 024a FB68     		ldr	r3, [r7, #12]
 2680 024c 1B68     		ldr	r3, [r3]
 2681 024e 1946     		mov	r1, r3
 2682 0250 1C4B     		ldr	r3, .L517+36
 2683 0252 9942     		cmp	r1, r3
 2684 0254 14D0     		beq	.L319
 2685              		.loc 1 646 0 discriminator 21
 2686 0256 FB68     		ldr	r3, [r7, #12]
 2687 0258 1B68     		ldr	r3, [r3]
 2688 025a 1946     		mov	r1, r3
 2689 025c 1A4B     		ldr	r3, .L517+40
 2690 025e 9942     		cmp	r1, r3
 2691 0260 0BD0     		beq	.L320
 2692              		.loc 1 646 0 discriminator 23
 2693 0262 FB68     		ldr	r3, [r7, #12]
 2694 0264 1B68     		ldr	r3, [r3]
 2695 0266 1946     		mov	r1, r3
 2696 0268 184B     		ldr	r3, .L517+44
 2697 026a 9942     		cmp	r1, r3
 2698 026c 02D1     		bne	.L321
 2699              		.loc 1 646 0 discriminator 25
 2700 026e 4FF40003 		mov	r3, #8388608
 2701 0272 3BE0     		b	.L333
 2702              	.L321:
 2703              		.loc 1 646 0 discriminator 26
 2704 0274 4FF00063 		mov	r3, #134217728
 2705 0278 38E0     		b	.L333
 2706              	.L320:
 2707              		.loc 1 646 0 discriminator 24
 2708 027a 4FF40003 		mov	r3, #8388608
 2709 027e 35E0     		b	.L333
 2710              	.L319:
 2711              		.loc 1 646 0 discriminator 22
 2712 0280 4FF40023 		mov	r3, #524288
 2713 0284 32E0     		b	.L333
 2714              	.L318:
 2715              		.loc 1 646 0 discriminator 20
 2716 0286 4FF40023 		mov	r3, #524288
 2717 028a 2FE0     		b	.L333
 2718              	.L317:
 2719              		.loc 1 646 0 discriminator 18
 2720 028c 4FF40043 		mov	r3, #32768
 2721 0290 2CE0     		b	.L333
 2722              	.L316:
 2723              		.loc 1 646 0 discriminator 16
ARM GAS  /tmp/cccQDy3L.s 			page 60


 2724 0292 4FF40043 		mov	r3, #32768
 2725 0296 29E0     		b	.L333
 2726              	.L315:
 2727              		.loc 1 646 0 discriminator 14
 2728 0298 4FF40063 		mov	r3, #2048
 2729 029c 26E0     		b	.L333
 2730              	.L518:
 2731 029e 00BF     		.align	2
 2732              	.L517:
 2733 02a0 08000240 		.word	1073872904
 2734 02a4 08040240 		.word	1073873928
 2735 02a8 1C000240 		.word	1073872924
 2736 02ac 1C040240 		.word	1073873948
 2737 02b0 30000240 		.word	1073872944
 2738 02b4 30040240 		.word	1073873968
 2739 02b8 44000240 		.word	1073872964
 2740 02bc 44040240 		.word	1073873988
 2741 02c0 58000240 		.word	1073872984
 2742 02c4 58040240 		.word	1073874008
 2743 02c8 6C000240 		.word	1073873004
 2744 02cc 6C040240 		.word	1073874028
 2745 02d0 80000240 		.word	1073873024
 2746 02d4 00040240 		.word	1073873920
 2747              	.L314:
 2748              		.loc 1 646 0 discriminator 12
 2749 02d8 4FF40063 		mov	r3, #2048
 2750 02dc 06E0     		b	.L333
 2751              	.L313:
 2752              		.loc 1 646 0 discriminator 10
 2753 02de 8023     		movs	r3, #128
 2754 02e0 04E0     		b	.L333
 2755              	.L312:
 2756              		.loc 1 646 0 discriminator 8
 2757 02e2 8023     		movs	r3, #128
 2758 02e4 02E0     		b	.L333
 2759              	.L311:
 2760              		.loc 1 646 0 discriminator 6
 2761 02e6 0823     		movs	r3, #8
 2762 02e8 00E0     		b	.L333
 2763              	.L310:
 2764              		.loc 1 646 0 discriminator 4
 2765 02ea 0823     		movs	r3, #8
 2766              	.L333:
 2767              		.loc 1 646 0 discriminator 50
 2768 02ec 1340     		ands	r3, r3, r2
 2769 02ee 002B     		cmp	r3, #0
 2770 02f0 14BF     		ite	ne
 2771 02f2 0123     		movne	r3, #1
 2772 02f4 0023     		moveq	r3, #0
 2773 02f6 DBB2     		uxtb	r3, r3
 2774 02f8 71E0     		b	.L334
 2775              	.L309:
 2776              		.loc 1 646 0 discriminator 2
 2777 02fa A04B     		ldr	r3, .L519
 2778 02fc 1A68     		ldr	r2, [r3]
 2779 02fe FB68     		ldr	r3, [r7, #12]
 2780 0300 1B68     		ldr	r3, [r3]
ARM GAS  /tmp/cccQDy3L.s 			page 61


 2781 0302 1946     		mov	r1, r3
 2782 0304 9E4B     		ldr	r3, .L519+4
 2783 0306 9942     		cmp	r1, r3
 2784 0308 62D0     		beq	.L335
 2785              		.loc 1 646 0 discriminator 52
 2786 030a FB68     		ldr	r3, [r7, #12]
 2787 030c 1B68     		ldr	r3, [r3]
 2788 030e 1946     		mov	r1, r3
 2789 0310 9C4B     		ldr	r3, .L519+8
 2790 0312 9942     		cmp	r1, r3
 2791 0314 5AD0     		beq	.L336
 2792              		.loc 1 646 0 discriminator 54
 2793 0316 FB68     		ldr	r3, [r7, #12]
 2794 0318 1B68     		ldr	r3, [r3]
 2795 031a 1946     		mov	r1, r3
 2796 031c 9A4B     		ldr	r3, .L519+12
 2797 031e 9942     		cmp	r1, r3
 2798 0320 52D0     		beq	.L337
 2799              		.loc 1 646 0 discriminator 56
 2800 0322 FB68     		ldr	r3, [r7, #12]
 2801 0324 1B68     		ldr	r3, [r3]
 2802 0326 1946     		mov	r1, r3
 2803 0328 984B     		ldr	r3, .L519+16
 2804 032a 9942     		cmp	r1, r3
 2805 032c 4AD0     		beq	.L338
 2806              		.loc 1 646 0 discriminator 58
 2807 032e FB68     		ldr	r3, [r7, #12]
 2808 0330 1B68     		ldr	r3, [r3]
 2809 0332 1946     		mov	r1, r3
 2810 0334 964B     		ldr	r3, .L519+20
 2811 0336 9942     		cmp	r1, r3
 2812 0338 41D0     		beq	.L339
 2813              		.loc 1 646 0 discriminator 60
 2814 033a FB68     		ldr	r3, [r7, #12]
 2815 033c 1B68     		ldr	r3, [r3]
 2816 033e 1946     		mov	r1, r3
 2817 0340 944B     		ldr	r3, .L519+24
 2818 0342 9942     		cmp	r1, r3
 2819 0344 38D0     		beq	.L340
 2820              		.loc 1 646 0 discriminator 62
 2821 0346 FB68     		ldr	r3, [r7, #12]
 2822 0348 1B68     		ldr	r3, [r3]
 2823 034a 1946     		mov	r1, r3
 2824 034c 924B     		ldr	r3, .L519+28
 2825 034e 9942     		cmp	r1, r3
 2826 0350 2FD0     		beq	.L341
 2827              		.loc 1 646 0 discriminator 64
 2828 0352 FB68     		ldr	r3, [r7, #12]
 2829 0354 1B68     		ldr	r3, [r3]
 2830 0356 1946     		mov	r1, r3
 2831 0358 904B     		ldr	r3, .L519+32
 2832 035a 9942     		cmp	r1, r3
 2833 035c 26D0     		beq	.L342
 2834              		.loc 1 646 0 discriminator 66
 2835 035e FB68     		ldr	r3, [r7, #12]
 2836 0360 1B68     		ldr	r3, [r3]
 2837 0362 1946     		mov	r1, r3
ARM GAS  /tmp/cccQDy3L.s 			page 62


 2838 0364 8E4B     		ldr	r3, .L519+36
 2839 0366 9942     		cmp	r1, r3
 2840 0368 1DD0     		beq	.L343
 2841              		.loc 1 646 0 discriminator 68
 2842 036a FB68     		ldr	r3, [r7, #12]
 2843 036c 1B68     		ldr	r3, [r3]
 2844 036e 1946     		mov	r1, r3
 2845 0370 8C4B     		ldr	r3, .L519+40
 2846 0372 9942     		cmp	r1, r3
 2847 0374 14D0     		beq	.L344
 2848              		.loc 1 646 0 discriminator 70
 2849 0376 FB68     		ldr	r3, [r7, #12]
 2850 0378 1B68     		ldr	r3, [r3]
 2851 037a 1946     		mov	r1, r3
 2852 037c 8A4B     		ldr	r3, .L519+44
 2853 037e 9942     		cmp	r1, r3
 2854 0380 0BD0     		beq	.L345
 2855              		.loc 1 646 0 discriminator 72
 2856 0382 FB68     		ldr	r3, [r7, #12]
 2857 0384 1B68     		ldr	r3, [r3]
 2858 0386 1946     		mov	r1, r3
 2859 0388 884B     		ldr	r3, .L519+48
 2860 038a 9942     		cmp	r1, r3
 2861 038c 02D1     		bne	.L346
 2862              		.loc 1 646 0 discriminator 74
 2863 038e 4FF40003 		mov	r3, #8388608
 2864 0392 1EE0     		b	.L358
 2865              	.L346:
 2866              		.loc 1 646 0 discriminator 75
 2867 0394 4FF00063 		mov	r3, #134217728
 2868 0398 1BE0     		b	.L358
 2869              	.L345:
 2870              		.loc 1 646 0 discriminator 73
 2871 039a 4FF40003 		mov	r3, #8388608
 2872 039e 18E0     		b	.L358
 2873              	.L344:
 2874              		.loc 1 646 0 discriminator 71
 2875 03a0 4FF40023 		mov	r3, #524288
 2876 03a4 15E0     		b	.L358
 2877              	.L343:
 2878              		.loc 1 646 0 discriminator 69
 2879 03a6 4FF40023 		mov	r3, #524288
 2880 03aa 12E0     		b	.L358
 2881              	.L342:
 2882              		.loc 1 646 0 discriminator 67
 2883 03ac 4FF40043 		mov	r3, #32768
 2884 03b0 0FE0     		b	.L358
 2885              	.L341:
 2886              		.loc 1 646 0 discriminator 65
 2887 03b2 4FF40043 		mov	r3, #32768
 2888 03b6 0CE0     		b	.L358
 2889              	.L340:
 2890              		.loc 1 646 0 discriminator 63
 2891 03b8 4FF40063 		mov	r3, #2048
 2892 03bc 09E0     		b	.L358
 2893              	.L339:
 2894              		.loc 1 646 0 discriminator 61
ARM GAS  /tmp/cccQDy3L.s 			page 63


 2895 03be 4FF40063 		mov	r3, #2048
 2896 03c2 06E0     		b	.L358
 2897              	.L338:
 2898              		.loc 1 646 0 discriminator 59
 2899 03c4 8023     		movs	r3, #128
 2900 03c6 04E0     		b	.L358
 2901              	.L337:
 2902              		.loc 1 646 0 discriminator 57
 2903 03c8 8023     		movs	r3, #128
 2904 03ca 02E0     		b	.L358
 2905              	.L336:
 2906              		.loc 1 646 0 discriminator 55
 2907 03cc 0823     		movs	r3, #8
 2908 03ce 00E0     		b	.L358
 2909              	.L335:
 2910              		.loc 1 646 0 discriminator 53
 2911 03d0 0823     		movs	r3, #8
 2912              	.L358:
 2913              		.loc 1 646 0 discriminator 99
 2914 03d2 1340     		ands	r3, r3, r2
 2915 03d4 002B     		cmp	r3, #0
 2916 03d6 14BF     		ite	ne
 2917 03d8 0123     		movne	r3, #1
 2918 03da 0023     		moveq	r3, #0
 2919 03dc DBB2     		uxtb	r3, r3
 2920              	.L334:
 2921              		.loc 1 646 0 discriminator 100
 2922 03de 002B     		cmp	r3, #0
 2923 03e0 00F01581 		beq	.L359
 647:Drivers/STM32L4xx_HAL_Driver/Src/stm32l4xx_hal_dma.c ****     {
 648:Drivers/STM32L4xx_HAL_Driver/Src/stm32l4xx_hal_dma.c ****       /* Clear the transfer error flags */
 649:Drivers/STM32L4xx_HAL_Driver/Src/stm32l4xx_hal_dma.c ****       __HAL_DMA_CLEAR_FLAG(hdma, __HAL_DMA_GET_TE_FLAG_INDEX(hdma));
 2924              		.loc 1 649 0 is_stmt 1
 2925 03e4 FB68     		ldr	r3, [r7, #12]
 2926 03e6 1B68     		ldr	r3, [r3]
 2927 03e8 1A46     		mov	r2, r3
 2928 03ea 714B     		ldr	r3, .L519+52
 2929 03ec 9A42     		cmp	r2, r3
 2930 03ee 6FD9     		bls	.L360
 2931              		.loc 1 649 0 is_stmt 0 discriminator 1
 2932 03f0 7049     		ldr	r1, .L519+56
 2933 03f2 704B     		ldr	r3, .L519+56
 2934 03f4 5A68     		ldr	r2, [r3, #4]
 2935 03f6 FB68     		ldr	r3, [r7, #12]
 2936 03f8 1B68     		ldr	r3, [r3]
 2937 03fa 1846     		mov	r0, r3
 2938 03fc 604B     		ldr	r3, .L519+4
 2939 03fe 9842     		cmp	r0, r3
 2940 0400 62D0     		beq	.L361
 2941              		.loc 1 649 0 discriminator 3
 2942 0402 FB68     		ldr	r3, [r7, #12]
 2943 0404 1B68     		ldr	r3, [r3]
 2944 0406 1846     		mov	r0, r3
 2945 0408 5E4B     		ldr	r3, .L519+8
 2946 040a 9842     		cmp	r0, r3
 2947 040c 5AD0     		beq	.L362
 2948              		.loc 1 649 0 discriminator 5
ARM GAS  /tmp/cccQDy3L.s 			page 64


 2949 040e FB68     		ldr	r3, [r7, #12]
 2950 0410 1B68     		ldr	r3, [r3]
 2951 0412 1846     		mov	r0, r3
 2952 0414 5C4B     		ldr	r3, .L519+12
 2953 0416 9842     		cmp	r0, r3
 2954 0418 52D0     		beq	.L363
 2955              		.loc 1 649 0 discriminator 7
 2956 041a FB68     		ldr	r3, [r7, #12]
 2957 041c 1B68     		ldr	r3, [r3]
 2958 041e 1846     		mov	r0, r3
 2959 0420 5A4B     		ldr	r3, .L519+16
 2960 0422 9842     		cmp	r0, r3
 2961 0424 4AD0     		beq	.L364
 2962              		.loc 1 649 0 discriminator 9
 2963 0426 FB68     		ldr	r3, [r7, #12]
 2964 0428 1B68     		ldr	r3, [r3]
 2965 042a 1846     		mov	r0, r3
 2966 042c 584B     		ldr	r3, .L519+20
 2967 042e 9842     		cmp	r0, r3
 2968 0430 41D0     		beq	.L365
 2969              		.loc 1 649 0 discriminator 11
 2970 0432 FB68     		ldr	r3, [r7, #12]
 2971 0434 1B68     		ldr	r3, [r3]
 2972 0436 1846     		mov	r0, r3
 2973 0438 564B     		ldr	r3, .L519+24
 2974 043a 9842     		cmp	r0, r3
 2975 043c 38D0     		beq	.L366
 2976              		.loc 1 649 0 discriminator 13
 2977 043e FB68     		ldr	r3, [r7, #12]
 2978 0440 1B68     		ldr	r3, [r3]
 2979 0442 1846     		mov	r0, r3
 2980 0444 544B     		ldr	r3, .L519+28
 2981 0446 9842     		cmp	r0, r3
 2982 0448 2FD0     		beq	.L367
 2983              		.loc 1 649 0 discriminator 15
 2984 044a FB68     		ldr	r3, [r7, #12]
 2985 044c 1B68     		ldr	r3, [r3]
 2986 044e 1846     		mov	r0, r3
 2987 0450 524B     		ldr	r3, .L519+32
 2988 0452 9842     		cmp	r0, r3
 2989 0454 26D0     		beq	.L368
 2990              		.loc 1 649 0 discriminator 17
 2991 0456 FB68     		ldr	r3, [r7, #12]
 2992 0458 1B68     		ldr	r3, [r3]
 2993 045a 1846     		mov	r0, r3
 2994 045c 504B     		ldr	r3, .L519+36
 2995 045e 9842     		cmp	r0, r3
 2996 0460 1DD0     		beq	.L369
 2997              		.loc 1 649 0 discriminator 19
 2998 0462 FB68     		ldr	r3, [r7, #12]
 2999 0464 1B68     		ldr	r3, [r3]
 3000 0466 1846     		mov	r0, r3
 3001 0468 4E4B     		ldr	r3, .L519+40
 3002 046a 9842     		cmp	r0, r3
 3003 046c 14D0     		beq	.L370
 3004              		.loc 1 649 0 discriminator 21
 3005 046e FB68     		ldr	r3, [r7, #12]
ARM GAS  /tmp/cccQDy3L.s 			page 65


 3006 0470 1B68     		ldr	r3, [r3]
 3007 0472 1846     		mov	r0, r3
 3008 0474 4C4B     		ldr	r3, .L519+44
 3009 0476 9842     		cmp	r0, r3
 3010 0478 0BD0     		beq	.L371
 3011              		.loc 1 649 0 discriminator 23
 3012 047a FB68     		ldr	r3, [r7, #12]
 3013 047c 1B68     		ldr	r3, [r3]
 3014 047e 1846     		mov	r0, r3
 3015 0480 4A4B     		ldr	r3, .L519+48
 3016 0482 9842     		cmp	r0, r3
 3017 0484 02D1     		bne	.L372
 3018              		.loc 1 649 0 discriminator 25
 3019 0486 4FF40003 		mov	r3, #8388608
 3020 048a 1EE0     		b	.L384
 3021              	.L372:
 3022              		.loc 1 649 0 discriminator 26
 3023 048c 4FF00063 		mov	r3, #134217728
 3024 0490 1BE0     		b	.L384
 3025              	.L371:
 3026              		.loc 1 649 0 discriminator 24
 3027 0492 4FF40003 		mov	r3, #8388608
 3028 0496 18E0     		b	.L384
 3029              	.L370:
 3030              		.loc 1 649 0 discriminator 22
 3031 0498 4FF40023 		mov	r3, #524288
 3032 049c 15E0     		b	.L384
 3033              	.L369:
 3034              		.loc 1 649 0 discriminator 20
 3035 049e 4FF40023 		mov	r3, #524288
 3036 04a2 12E0     		b	.L384
 3037              	.L368:
 3038              		.loc 1 649 0 discriminator 18
 3039 04a4 4FF40043 		mov	r3, #32768
 3040 04a8 0FE0     		b	.L384
 3041              	.L367:
 3042              		.loc 1 649 0 discriminator 16
 3043 04aa 4FF40043 		mov	r3, #32768
 3044 04ae 0CE0     		b	.L384
 3045              	.L366:
 3046              		.loc 1 649 0 discriminator 14
 3047 04b0 4FF40063 		mov	r3, #2048
 3048 04b4 09E0     		b	.L384
 3049              	.L365:
 3050              		.loc 1 649 0 discriminator 12
 3051 04b6 4FF40063 		mov	r3, #2048
 3052 04ba 06E0     		b	.L384
 3053              	.L364:
 3054              		.loc 1 649 0 discriminator 10
 3055 04bc 8023     		movs	r3, #128
 3056 04be 04E0     		b	.L384
 3057              	.L363:
 3058              		.loc 1 649 0 discriminator 8
 3059 04c0 8023     		movs	r3, #128
 3060 04c2 02E0     		b	.L384
 3061              	.L362:
 3062              		.loc 1 649 0 discriminator 6
ARM GAS  /tmp/cccQDy3L.s 			page 66


 3063 04c4 0823     		movs	r3, #8
 3064 04c6 00E0     		b	.L384
 3065              	.L361:
 3066              		.loc 1 649 0 discriminator 4
 3067 04c8 0823     		movs	r3, #8
 3068              	.L384:
 3069              		.loc 1 649 0 discriminator 50
 3070 04ca 1343     		orrs	r3, r3, r2
 3071 04cc 4B60     		str	r3, [r1, #4]
 3072 04ce 8EE0     		b	.L385
 3073              	.L360:
 3074              		.loc 1 649 0 discriminator 2
 3075 04d0 2A49     		ldr	r1, .L519
 3076 04d2 2A4B     		ldr	r3, .L519
 3077 04d4 5A68     		ldr	r2, [r3, #4]
 3078 04d6 FB68     		ldr	r3, [r7, #12]
 3079 04d8 1B68     		ldr	r3, [r3]
 3080 04da 1846     		mov	r0, r3
 3081 04dc 284B     		ldr	r3, .L519+4
 3082 04de 9842     		cmp	r0, r3
 3083 04e0 00F08280 		beq	.L386
 3084              		.loc 1 649 0 discriminator 51
 3085 04e4 FB68     		ldr	r3, [r7, #12]
 3086 04e6 1B68     		ldr	r3, [r3]
 3087 04e8 1846     		mov	r0, r3
 3088 04ea 264B     		ldr	r3, .L519+8
 3089 04ec 9842     		cmp	r0, r3
 3090 04ee 79D0     		beq	.L387
 3091              		.loc 1 649 0 discriminator 53
 3092 04f0 FB68     		ldr	r3, [r7, #12]
 3093 04f2 1B68     		ldr	r3, [r3]
 3094 04f4 1846     		mov	r0, r3
 3095 04f6 244B     		ldr	r3, .L519+12
 3096 04f8 9842     		cmp	r0, r3
 3097 04fa 71D0     		beq	.L388
 3098              		.loc 1 649 0 discriminator 55
 3099 04fc FB68     		ldr	r3, [r7, #12]
 3100 04fe 1B68     		ldr	r3, [r3]
 3101 0500 1846     		mov	r0, r3
 3102 0502 224B     		ldr	r3, .L519+16
 3103 0504 9842     		cmp	r0, r3
 3104 0506 69D0     		beq	.L389
 3105              		.loc 1 649 0 discriminator 57
 3106 0508 FB68     		ldr	r3, [r7, #12]
 3107 050a 1B68     		ldr	r3, [r3]
 3108 050c 1846     		mov	r0, r3
 3109 050e 204B     		ldr	r3, .L519+20
 3110 0510 9842     		cmp	r0, r3
 3111 0512 60D0     		beq	.L390
 3112              		.loc 1 649 0 discriminator 59
 3113 0514 FB68     		ldr	r3, [r7, #12]
 3114 0516 1B68     		ldr	r3, [r3]
 3115 0518 1846     		mov	r0, r3
 3116 051a 1E4B     		ldr	r3, .L519+24
 3117 051c 9842     		cmp	r0, r3
 3118 051e 57D0     		beq	.L391
 3119              		.loc 1 649 0 discriminator 61
ARM GAS  /tmp/cccQDy3L.s 			page 67


 3120 0520 FB68     		ldr	r3, [r7, #12]
 3121 0522 1B68     		ldr	r3, [r3]
 3122 0524 1846     		mov	r0, r3
 3123 0526 1C4B     		ldr	r3, .L519+28
 3124 0528 9842     		cmp	r0, r3
 3125 052a 4ED0     		beq	.L392
 3126              		.loc 1 649 0 discriminator 63
 3127 052c FB68     		ldr	r3, [r7, #12]
 3128 052e 1B68     		ldr	r3, [r3]
 3129 0530 1846     		mov	r0, r3
 3130 0532 1A4B     		ldr	r3, .L519+32
 3131 0534 9842     		cmp	r0, r3
 3132 0536 45D0     		beq	.L393
 3133              		.loc 1 649 0 discriminator 65
 3134 0538 FB68     		ldr	r3, [r7, #12]
 3135 053a 1B68     		ldr	r3, [r3]
 3136 053c 1846     		mov	r0, r3
 3137 053e 184B     		ldr	r3, .L519+36
 3138 0540 9842     		cmp	r0, r3
 3139 0542 3CD0     		beq	.L394
 3140              		.loc 1 649 0 discriminator 67
 3141 0544 FB68     		ldr	r3, [r7, #12]
 3142 0546 1B68     		ldr	r3, [r3]
 3143 0548 1846     		mov	r0, r3
 3144 054a 164B     		ldr	r3, .L519+40
 3145 054c 9842     		cmp	r0, r3
 3146 054e 33D0     		beq	.L395
 3147              		.loc 1 649 0 discriminator 69
 3148 0550 FB68     		ldr	r3, [r7, #12]
 3149 0552 1B68     		ldr	r3, [r3]
 3150 0554 1846     		mov	r0, r3
 3151 0556 144B     		ldr	r3, .L519+44
 3152 0558 9842     		cmp	r0, r3
 3153 055a 0BD0     		beq	.L396
 3154              		.loc 1 649 0 discriminator 71
 3155 055c FB68     		ldr	r3, [r7, #12]
 3156 055e 1B68     		ldr	r3, [r3]
 3157 0560 1846     		mov	r0, r3
 3158 0562 124B     		ldr	r3, .L519+48
 3159 0564 9842     		cmp	r0, r3
 3160 0566 02D1     		bne	.L397
 3161              		.loc 1 649 0 discriminator 73
 3162 0568 4FF40003 		mov	r3, #8388608
 3163 056c 3DE0     		b	.L409
 3164              	.L397:
 3165              		.loc 1 649 0 discriminator 74
 3166 056e 4FF00063 		mov	r3, #134217728
 3167 0572 3AE0     		b	.L409
 3168              	.L396:
 3169              		.loc 1 649 0 discriminator 72
 3170 0574 4FF40003 		mov	r3, #8388608
 3171 0578 37E0     		b	.L409
 3172              	.L520:
 3173 057a 00BF     		.align	2
 3174              	.L519:
 3175 057c 00000240 		.word	1073872896
 3176 0580 08000240 		.word	1073872904
ARM GAS  /tmp/cccQDy3L.s 			page 68


 3177 0584 08040240 		.word	1073873928
 3178 0588 1C000240 		.word	1073872924
 3179 058c 1C040240 		.word	1073873948
 3180 0590 30000240 		.word	1073872944
 3181 0594 30040240 		.word	1073873968
 3182 0598 44000240 		.word	1073872964
 3183 059c 44040240 		.word	1073873988
 3184 05a0 58000240 		.word	1073872984
 3185 05a4 58040240 		.word	1073874008
 3186 05a8 6C000240 		.word	1073873004
 3187 05ac 6C040240 		.word	1073874028
 3188 05b0 80000240 		.word	1073873024
 3189 05b4 00040240 		.word	1073873920
 3190              	.L395:
 3191              		.loc 1 649 0 discriminator 70
 3192 05b8 4FF40023 		mov	r3, #524288
 3193 05bc 15E0     		b	.L409
 3194              	.L394:
 3195              		.loc 1 649 0 discriminator 68
 3196 05be 4FF40023 		mov	r3, #524288
 3197 05c2 12E0     		b	.L409
 3198              	.L393:
 3199              		.loc 1 649 0 discriminator 66
 3200 05c4 4FF40043 		mov	r3, #32768
 3201 05c8 0FE0     		b	.L409
 3202              	.L392:
 3203              		.loc 1 649 0 discriminator 64
 3204 05ca 4FF40043 		mov	r3, #32768
 3205 05ce 0CE0     		b	.L409
 3206              	.L391:
 3207              		.loc 1 649 0 discriminator 62
 3208 05d0 4FF40063 		mov	r3, #2048
 3209 05d4 09E0     		b	.L409
 3210              	.L390:
 3211              		.loc 1 649 0 discriminator 60
 3212 05d6 4FF40063 		mov	r3, #2048
 3213 05da 06E0     		b	.L409
 3214              	.L389:
 3215              		.loc 1 649 0 discriminator 58
 3216 05dc 8023     		movs	r3, #128
 3217 05de 04E0     		b	.L409
 3218              	.L388:
 3219              		.loc 1 649 0 discriminator 56
 3220 05e0 8023     		movs	r3, #128
 3221 05e2 02E0     		b	.L409
 3222              	.L387:
 3223              		.loc 1 649 0 discriminator 54
 3224 05e4 0823     		movs	r3, #8
 3225 05e6 00E0     		b	.L409
 3226              	.L386:
 3227              		.loc 1 649 0 discriminator 52
 3228 05e8 0823     		movs	r3, #8
 3229              	.L409:
 3230              		.loc 1 649 0 discriminator 98
 3231 05ea 1343     		orrs	r3, r3, r2
 3232 05ec 4B60     		str	r3, [r1, #4]
 3233              	.L385:
ARM GAS  /tmp/cccQDy3L.s 			page 69


 650:Drivers/STM32L4xx_HAL_Driver/Src/stm32l4xx_hal_dma.c **** 
 651:Drivers/STM32L4xx_HAL_Driver/Src/stm32l4xx_hal_dma.c ****       /* Update error code */
 652:Drivers/STM32L4xx_HAL_Driver/Src/stm32l4xx_hal_dma.c ****       SET_BIT(hdma->ErrorCode, HAL_DMA_ERROR_TE);
 3234              		.loc 1 652 0 is_stmt 1
 3235 05ee FB68     		ldr	r3, [r7, #12]
 3236 05f0 9B6B     		ldr	r3, [r3, #56]
 3237 05f2 43F00102 		orr	r2, r3, #1
 3238 05f6 FB68     		ldr	r3, [r7, #12]
 3239 05f8 9A63     		str	r2, [r3, #56]
 653:Drivers/STM32L4xx_HAL_Driver/Src/stm32l4xx_hal_dma.c **** 
 654:Drivers/STM32L4xx_HAL_Driver/Src/stm32l4xx_hal_dma.c ****       /* Change the DMA state */
 655:Drivers/STM32L4xx_HAL_Driver/Src/stm32l4xx_hal_dma.c ****       hdma->State= HAL_DMA_STATE_ERROR;
 3240              		.loc 1 655 0
 3241 05fa FB68     		ldr	r3, [r7, #12]
 3242 05fc 0422     		movs	r2, #4
 3243 05fe 83F82520 		strb	r2, [r3, #37]
 656:Drivers/STM32L4xx_HAL_Driver/Src/stm32l4xx_hal_dma.c **** 
 657:Drivers/STM32L4xx_HAL_Driver/Src/stm32l4xx_hal_dma.c ****       /* Process Unlocked */
 658:Drivers/STM32L4xx_HAL_Driver/Src/stm32l4xx_hal_dma.c ****       __HAL_UNLOCK(hdma);
 3244              		.loc 1 658 0
 3245 0602 FB68     		ldr	r3, [r7, #12]
 3246 0604 0022     		movs	r2, #0
 3247 0606 83F82420 		strb	r2, [r3, #36]
 659:Drivers/STM32L4xx_HAL_Driver/Src/stm32l4xx_hal_dma.c **** 
 660:Drivers/STM32L4xx_HAL_Driver/Src/stm32l4xx_hal_dma.c ****       return HAL_ERROR;
 3248              		.loc 1 660 0
 3249 060a 0123     		movs	r3, #1
 3250 060c 34E2     		b	.L410
 3251              	.L359:
 661:Drivers/STM32L4xx_HAL_Driver/Src/stm32l4xx_hal_dma.c ****     }
 662:Drivers/STM32L4xx_HAL_Driver/Src/stm32l4xx_hal_dma.c ****     /* Check for the Timeout */
 663:Drivers/STM32L4xx_HAL_Driver/Src/stm32l4xx_hal_dma.c ****     if(Timeout != HAL_MAX_DELAY)
 3252              		.loc 1 663 0
 3253 060e 7B68     		ldr	r3, [r7, #4]
 3254 0610 B3F1FF3F 		cmp	r3, #-1
 3255 0614 1AD0     		beq	.L308
 664:Drivers/STM32L4xx_HAL_Driver/Src/stm32l4xx_hal_dma.c ****     {
 665:Drivers/STM32L4xx_HAL_Driver/Src/stm32l4xx_hal_dma.c ****       if((Timeout == 0) || ((HAL_GetTick() - tickstart) > Timeout))
 3256              		.loc 1 665 0
 3257 0616 7B68     		ldr	r3, [r7, #4]
 3258 0618 002B     		cmp	r3, #0
 3259 061a 07D0     		beq	.L411
 3260              		.loc 1 665 0 is_stmt 0 discriminator 1
 3261 061c FFF7FEFF 		bl	HAL_GetTick
 3262 0620 0246     		mov	r2, r0
 3263 0622 3B69     		ldr	r3, [r7, #16]
 3264 0624 D21A     		subs	r2, r2, r3
 3265 0626 7B68     		ldr	r3, [r7, #4]
 3266 0628 9A42     		cmp	r2, r3
 3267 062a 0FD9     		bls	.L308
 3268              	.L411:
 666:Drivers/STM32L4xx_HAL_Driver/Src/stm32l4xx_hal_dma.c ****       {
 667:Drivers/STM32L4xx_HAL_Driver/Src/stm32l4xx_hal_dma.c ****         /* Update error code */
 668:Drivers/STM32L4xx_HAL_Driver/Src/stm32l4xx_hal_dma.c ****         hdma->ErrorCode |= HAL_DMA_ERROR_TIMEOUT;
 3269              		.loc 1 668 0 is_stmt 1
 3270 062c FB68     		ldr	r3, [r7, #12]
 3271 062e 9B6B     		ldr	r3, [r3, #56]
ARM GAS  /tmp/cccQDy3L.s 			page 70


 3272 0630 43F02002 		orr	r2, r3, #32
 3273 0634 FB68     		ldr	r3, [r7, #12]
 3274 0636 9A63     		str	r2, [r3, #56]
 669:Drivers/STM32L4xx_HAL_Driver/Src/stm32l4xx_hal_dma.c **** 
 670:Drivers/STM32L4xx_HAL_Driver/Src/stm32l4xx_hal_dma.c ****         /* Change the DMA state */
 671:Drivers/STM32L4xx_HAL_Driver/Src/stm32l4xx_hal_dma.c ****         hdma->State = HAL_DMA_STATE_TIMEOUT;
 3275              		.loc 1 671 0
 3276 0638 FB68     		ldr	r3, [r7, #12]
 3277 063a 0322     		movs	r2, #3
 3278 063c 83F82520 		strb	r2, [r3, #37]
 672:Drivers/STM32L4xx_HAL_Driver/Src/stm32l4xx_hal_dma.c **** 
 673:Drivers/STM32L4xx_HAL_Driver/Src/stm32l4xx_hal_dma.c ****         /* Process Unlocked */
 674:Drivers/STM32L4xx_HAL_Driver/Src/stm32l4xx_hal_dma.c ****         __HAL_UNLOCK(hdma);
 3279              		.loc 1 674 0
 3280 0640 FB68     		ldr	r3, [r7, #12]
 3281 0642 0022     		movs	r2, #0
 3282 0644 83F82420 		strb	r2, [r3, #36]
 675:Drivers/STM32L4xx_HAL_Driver/Src/stm32l4xx_hal_dma.c **** 
 676:Drivers/STM32L4xx_HAL_Driver/Src/stm32l4xx_hal_dma.c ****         return HAL_TIMEOUT;
 3283              		.loc 1 676 0
 3284 0648 0323     		movs	r3, #3
 3285 064a 15E2     		b	.L410
 3286              	.L308:
 644:Drivers/STM32L4xx_HAL_Driver/Src/stm32l4xx_hal_dma.c ****   {
 3287              		.loc 1 644 0
 3288 064c FB68     		ldr	r3, [r7, #12]
 3289 064e 1B68     		ldr	r3, [r3]
 3290 0650 1A46     		mov	r2, r3
 3291 0652 834B     		ldr	r3, .L521
 3292 0654 9A42     		cmp	r2, r3
 3293 0656 09D9     		bls	.L412
 644:Drivers/STM32L4xx_HAL_Driver/Src/stm32l4xx_hal_dma.c ****   {
 3294              		.loc 1 644 0 is_stmt 0 discriminator 1
 3295 0658 824B     		ldr	r3, .L521+4
 3296 065a 1A68     		ldr	r2, [r3]
 3297 065c 7B69     		ldr	r3, [r7, #20]
 3298 065e 1340     		ands	r3, r3, r2
 3299 0660 002B     		cmp	r3, #0
 3300 0662 0CBF     		ite	eq
 3301 0664 0123     		moveq	r3, #1
 3302 0666 0023     		movne	r3, #0
 3303 0668 DBB2     		uxtb	r3, r3
 3304 066a 08E0     		b	.L413
 3305              	.L412:
 644:Drivers/STM32L4xx_HAL_Driver/Src/stm32l4xx_hal_dma.c ****   {
 3306              		.loc 1 644 0 discriminator 2
 3307 066c 7E4B     		ldr	r3, .L521+8
 3308 066e 1A68     		ldr	r2, [r3]
 3309 0670 7B69     		ldr	r3, [r7, #20]
 3310 0672 1340     		ands	r3, r3, r2
 3311 0674 002B     		cmp	r3, #0
 3312 0676 0CBF     		ite	eq
 3313 0678 0123     		moveq	r3, #1
 3314 067a 0023     		movne	r3, #0
 3315 067c DBB2     		uxtb	r3, r3
 3316              	.L413:
 644:Drivers/STM32L4xx_HAL_Driver/Src/stm32l4xx_hal_dma.c ****   {
ARM GAS  /tmp/cccQDy3L.s 			page 71


 3317              		.loc 1 644 0 discriminator 4
 3318 067e 002B     		cmp	r3, #0
 3319 0680 7FF4A4AD 		bne	.L414
 677:Drivers/STM32L4xx_HAL_Driver/Src/stm32l4xx_hal_dma.c ****       }
 678:Drivers/STM32L4xx_HAL_Driver/Src/stm32l4xx_hal_dma.c ****     }
 679:Drivers/STM32L4xx_HAL_Driver/Src/stm32l4xx_hal_dma.c ****   }
 680:Drivers/STM32L4xx_HAL_Driver/Src/stm32l4xx_hal_dma.c **** 
 681:Drivers/STM32L4xx_HAL_Driver/Src/stm32l4xx_hal_dma.c ****   if(CompleteLevel == HAL_DMA_FULL_TRANSFER)
 3320              		.loc 1 681 0 is_stmt 1
 3321 0684 BB68     		ldr	r3, [r7, #8]
 3322 0686 002B     		cmp	r3, #0
 3323 0688 40F00881 		bne	.L415
 682:Drivers/STM32L4xx_HAL_Driver/Src/stm32l4xx_hal_dma.c ****   {
 683:Drivers/STM32L4xx_HAL_Driver/Src/stm32l4xx_hal_dma.c ****     /* Clear the transfer complete flag */
 684:Drivers/STM32L4xx_HAL_Driver/Src/stm32l4xx_hal_dma.c ****     __HAL_DMA_CLEAR_FLAG(hdma, __HAL_DMA_GET_TC_FLAG_INDEX(hdma));
 3324              		.loc 1 684 0
 3325 068c FB68     		ldr	r3, [r7, #12]
 3326 068e 1B68     		ldr	r3, [r3]
 3327 0690 1A46     		mov	r2, r3
 3328 0692 734B     		ldr	r3, .L521
 3329 0694 9A42     		cmp	r2, r3
 3330 0696 6FD9     		bls	.L416
 3331              		.loc 1 684 0 is_stmt 0 discriminator 1
 3332 0698 7249     		ldr	r1, .L521+4
 3333 069a 724B     		ldr	r3, .L521+4
 3334 069c 5A68     		ldr	r2, [r3, #4]
 3335 069e FB68     		ldr	r3, [r7, #12]
 3336 06a0 1B68     		ldr	r3, [r3]
 3337 06a2 1846     		mov	r0, r3
 3338 06a4 714B     		ldr	r3, .L521+12
 3339 06a6 9842     		cmp	r0, r3
 3340 06a8 62D0     		beq	.L417
 3341              		.loc 1 684 0 discriminator 3
 3342 06aa FB68     		ldr	r3, [r7, #12]
 3343 06ac 1B68     		ldr	r3, [r3]
 3344 06ae 1846     		mov	r0, r3
 3345 06b0 6F4B     		ldr	r3, .L521+16
 3346 06b2 9842     		cmp	r0, r3
 3347 06b4 5AD0     		beq	.L418
 3348              		.loc 1 684 0 discriminator 5
 3349 06b6 FB68     		ldr	r3, [r7, #12]
 3350 06b8 1B68     		ldr	r3, [r3]
 3351 06ba 1846     		mov	r0, r3
 3352 06bc 6D4B     		ldr	r3, .L521+20
 3353 06be 9842     		cmp	r0, r3
 3354 06c0 52D0     		beq	.L419
 3355              		.loc 1 684 0 discriminator 7
 3356 06c2 FB68     		ldr	r3, [r7, #12]
 3357 06c4 1B68     		ldr	r3, [r3]
 3358 06c6 1846     		mov	r0, r3
 3359 06c8 6B4B     		ldr	r3, .L521+24
 3360 06ca 9842     		cmp	r0, r3
 3361 06cc 4AD0     		beq	.L420
 3362              		.loc 1 684 0 discriminator 9
 3363 06ce FB68     		ldr	r3, [r7, #12]
 3364 06d0 1B68     		ldr	r3, [r3]
 3365 06d2 1846     		mov	r0, r3
ARM GAS  /tmp/cccQDy3L.s 			page 72


 3366 06d4 694B     		ldr	r3, .L521+28
 3367 06d6 9842     		cmp	r0, r3
 3368 06d8 41D0     		beq	.L421
 3369              		.loc 1 684 0 discriminator 11
 3370 06da FB68     		ldr	r3, [r7, #12]
 3371 06dc 1B68     		ldr	r3, [r3]
 3372 06de 1846     		mov	r0, r3
 3373 06e0 674B     		ldr	r3, .L521+32
 3374 06e2 9842     		cmp	r0, r3
 3375 06e4 38D0     		beq	.L422
 3376              		.loc 1 684 0 discriminator 13
 3377 06e6 FB68     		ldr	r3, [r7, #12]
 3378 06e8 1B68     		ldr	r3, [r3]
 3379 06ea 1846     		mov	r0, r3
 3380 06ec 654B     		ldr	r3, .L521+36
 3381 06ee 9842     		cmp	r0, r3
 3382 06f0 2FD0     		beq	.L423
 3383              		.loc 1 684 0 discriminator 15
 3384 06f2 FB68     		ldr	r3, [r7, #12]
 3385 06f4 1B68     		ldr	r3, [r3]
 3386 06f6 1846     		mov	r0, r3
 3387 06f8 634B     		ldr	r3, .L521+40
 3388 06fa 9842     		cmp	r0, r3
 3389 06fc 26D0     		beq	.L424
 3390              		.loc 1 684 0 discriminator 17
 3391 06fe FB68     		ldr	r3, [r7, #12]
 3392 0700 1B68     		ldr	r3, [r3]
 3393 0702 1846     		mov	r0, r3
 3394 0704 614B     		ldr	r3, .L521+44
 3395 0706 9842     		cmp	r0, r3
 3396 0708 1DD0     		beq	.L425
 3397              		.loc 1 684 0 discriminator 19
 3398 070a FB68     		ldr	r3, [r7, #12]
 3399 070c 1B68     		ldr	r3, [r3]
 3400 070e 1846     		mov	r0, r3
 3401 0710 5F4B     		ldr	r3, .L521+48
 3402 0712 9842     		cmp	r0, r3
 3403 0714 14D0     		beq	.L426
 3404              		.loc 1 684 0 discriminator 21
 3405 0716 FB68     		ldr	r3, [r7, #12]
 3406 0718 1B68     		ldr	r3, [r3]
 3407 071a 1846     		mov	r0, r3
 3408 071c 5D4B     		ldr	r3, .L521+52
 3409 071e 9842     		cmp	r0, r3
 3410 0720 0BD0     		beq	.L427
 3411              		.loc 1 684 0 discriminator 23
 3412 0722 FB68     		ldr	r3, [r7, #12]
 3413 0724 1B68     		ldr	r3, [r3]
 3414 0726 1846     		mov	r0, r3
 3415 0728 5B4B     		ldr	r3, .L521+56
 3416 072a 9842     		cmp	r0, r3
 3417 072c 02D1     		bne	.L428
 3418              		.loc 1 684 0 discriminator 25
 3419 072e 4FF40013 		mov	r3, #2097152
 3420 0732 1EE0     		b	.L440
 3421              	.L428:
 3422              		.loc 1 684 0 discriminator 26
ARM GAS  /tmp/cccQDy3L.s 			page 73


 3423 0734 4FF00073 		mov	r3, #33554432
 3424 0738 1BE0     		b	.L440
 3425              	.L427:
 3426              		.loc 1 684 0 discriminator 24
 3427 073a 4FF40013 		mov	r3, #2097152
 3428 073e 18E0     		b	.L440
 3429              	.L426:
 3430              		.loc 1 684 0 discriminator 22
 3431 0740 4FF40033 		mov	r3, #131072
 3432 0744 15E0     		b	.L440
 3433              	.L425:
 3434              		.loc 1 684 0 discriminator 20
 3435 0746 4FF40033 		mov	r3, #131072
 3436 074a 12E0     		b	.L440
 3437              	.L424:
 3438              		.loc 1 684 0 discriminator 18
 3439 074c 4FF40053 		mov	r3, #8192
 3440 0750 0FE0     		b	.L440
 3441              	.L423:
 3442              		.loc 1 684 0 discriminator 16
 3443 0752 4FF40053 		mov	r3, #8192
 3444 0756 0CE0     		b	.L440
 3445              	.L422:
 3446              		.loc 1 684 0 discriminator 14
 3447 0758 4FF40073 		mov	r3, #512
 3448 075c 09E0     		b	.L440
 3449              	.L421:
 3450              		.loc 1 684 0 discriminator 12
 3451 075e 4FF40073 		mov	r3, #512
 3452 0762 06E0     		b	.L440
 3453              	.L420:
 3454              		.loc 1 684 0 discriminator 10
 3455 0764 2023     		movs	r3, #32
 3456 0766 04E0     		b	.L440
 3457              	.L419:
 3458              		.loc 1 684 0 discriminator 8
 3459 0768 2023     		movs	r3, #32
 3460 076a 02E0     		b	.L440
 3461              	.L418:
 3462              		.loc 1 684 0 discriminator 6
 3463 076c 0223     		movs	r3, #2
 3464 076e 00E0     		b	.L440
 3465              	.L417:
 3466              		.loc 1 684 0 discriminator 4
 3467 0770 0223     		movs	r3, #2
 3468              	.L440:
 3469              		.loc 1 684 0 discriminator 50
 3470 0772 1343     		orrs	r3, r3, r2
 3471 0774 4B60     		str	r3, [r1, #4]
 3472 0776 6EE0     		b	.L441
 3473              	.L416:
 3474              		.loc 1 684 0 discriminator 2
 3475 0778 3B49     		ldr	r1, .L521+8
 3476 077a 3B4B     		ldr	r3, .L521+8
 3477 077c 5A68     		ldr	r2, [r3, #4]
 3478 077e FB68     		ldr	r3, [r7, #12]
 3479 0780 1B68     		ldr	r3, [r3]
ARM GAS  /tmp/cccQDy3L.s 			page 74


 3480 0782 1846     		mov	r0, r3
 3481 0784 394B     		ldr	r3, .L521+12
 3482 0786 9842     		cmp	r0, r3
 3483 0788 62D0     		beq	.L442
 3484              		.loc 1 684 0 discriminator 51
 3485 078a FB68     		ldr	r3, [r7, #12]
 3486 078c 1B68     		ldr	r3, [r3]
 3487 078e 1846     		mov	r0, r3
 3488 0790 374B     		ldr	r3, .L521+16
 3489 0792 9842     		cmp	r0, r3
 3490 0794 5AD0     		beq	.L443
 3491              		.loc 1 684 0 discriminator 53
 3492 0796 FB68     		ldr	r3, [r7, #12]
 3493 0798 1B68     		ldr	r3, [r3]
 3494 079a 1846     		mov	r0, r3
 3495 079c 354B     		ldr	r3, .L521+20
 3496 079e 9842     		cmp	r0, r3
 3497 07a0 52D0     		beq	.L444
 3498              		.loc 1 684 0 discriminator 55
 3499 07a2 FB68     		ldr	r3, [r7, #12]
 3500 07a4 1B68     		ldr	r3, [r3]
 3501 07a6 1846     		mov	r0, r3
 3502 07a8 334B     		ldr	r3, .L521+24
 3503 07aa 9842     		cmp	r0, r3
 3504 07ac 4AD0     		beq	.L445
 3505              		.loc 1 684 0 discriminator 57
 3506 07ae FB68     		ldr	r3, [r7, #12]
 3507 07b0 1B68     		ldr	r3, [r3]
 3508 07b2 1846     		mov	r0, r3
 3509 07b4 314B     		ldr	r3, .L521+28
 3510 07b6 9842     		cmp	r0, r3
 3511 07b8 41D0     		beq	.L446
 3512              		.loc 1 684 0 discriminator 59
 3513 07ba FB68     		ldr	r3, [r7, #12]
 3514 07bc 1B68     		ldr	r3, [r3]
 3515 07be 1846     		mov	r0, r3
 3516 07c0 2F4B     		ldr	r3, .L521+32
 3517 07c2 9842     		cmp	r0, r3
 3518 07c4 38D0     		beq	.L447
 3519              		.loc 1 684 0 discriminator 61
 3520 07c6 FB68     		ldr	r3, [r7, #12]
 3521 07c8 1B68     		ldr	r3, [r3]
 3522 07ca 1846     		mov	r0, r3
 3523 07cc 2D4B     		ldr	r3, .L521+36
 3524 07ce 9842     		cmp	r0, r3
 3525 07d0 2FD0     		beq	.L448
 3526              		.loc 1 684 0 discriminator 63
 3527 07d2 FB68     		ldr	r3, [r7, #12]
 3528 07d4 1B68     		ldr	r3, [r3]
 3529 07d6 1846     		mov	r0, r3
 3530 07d8 2B4B     		ldr	r3, .L521+40
 3531 07da 9842     		cmp	r0, r3
 3532 07dc 26D0     		beq	.L449
 3533              		.loc 1 684 0 discriminator 65
 3534 07de FB68     		ldr	r3, [r7, #12]
 3535 07e0 1B68     		ldr	r3, [r3]
 3536 07e2 1846     		mov	r0, r3
ARM GAS  /tmp/cccQDy3L.s 			page 75


 3537 07e4 294B     		ldr	r3, .L521+44
 3538 07e6 9842     		cmp	r0, r3
 3539 07e8 1DD0     		beq	.L450
 3540              		.loc 1 684 0 discriminator 67
 3541 07ea FB68     		ldr	r3, [r7, #12]
 3542 07ec 1B68     		ldr	r3, [r3]
 3543 07ee 1846     		mov	r0, r3
 3544 07f0 274B     		ldr	r3, .L521+48
 3545 07f2 9842     		cmp	r0, r3
 3546 07f4 14D0     		beq	.L451
 3547              		.loc 1 684 0 discriminator 69
 3548 07f6 FB68     		ldr	r3, [r7, #12]
 3549 07f8 1B68     		ldr	r3, [r3]
 3550 07fa 1846     		mov	r0, r3
 3551 07fc 254B     		ldr	r3, .L521+52
 3552 07fe 9842     		cmp	r0, r3
 3553 0800 0BD0     		beq	.L452
 3554              		.loc 1 684 0 discriminator 71
 3555 0802 FB68     		ldr	r3, [r7, #12]
 3556 0804 1B68     		ldr	r3, [r3]
 3557 0806 1846     		mov	r0, r3
 3558 0808 234B     		ldr	r3, .L521+56
 3559 080a 9842     		cmp	r0, r3
 3560 080c 02D1     		bne	.L453
 3561              		.loc 1 684 0 discriminator 73
 3562 080e 4FF40013 		mov	r3, #2097152
 3563 0812 1EE0     		b	.L465
 3564              	.L453:
 3565              		.loc 1 684 0 discriminator 74
 3566 0814 4FF00073 		mov	r3, #33554432
 3567 0818 1BE0     		b	.L465
 3568              	.L452:
 3569              		.loc 1 684 0 discriminator 72
 3570 081a 4FF40013 		mov	r3, #2097152
 3571 081e 18E0     		b	.L465
 3572              	.L451:
 3573              		.loc 1 684 0 discriminator 70
 3574 0820 4FF40033 		mov	r3, #131072
 3575 0824 15E0     		b	.L465
 3576              	.L450:
 3577              		.loc 1 684 0 discriminator 68
 3578 0826 4FF40033 		mov	r3, #131072
 3579 082a 12E0     		b	.L465
 3580              	.L449:
 3581              		.loc 1 684 0 discriminator 66
 3582 082c 4FF40053 		mov	r3, #8192
 3583 0830 0FE0     		b	.L465
 3584              	.L448:
 3585              		.loc 1 684 0 discriminator 64
 3586 0832 4FF40053 		mov	r3, #8192
 3587 0836 0CE0     		b	.L465
 3588              	.L447:
 3589              		.loc 1 684 0 discriminator 62
 3590 0838 4FF40073 		mov	r3, #512
 3591 083c 09E0     		b	.L465
 3592              	.L446:
 3593              		.loc 1 684 0 discriminator 60
ARM GAS  /tmp/cccQDy3L.s 			page 76


 3594 083e 4FF40073 		mov	r3, #512
 3595 0842 06E0     		b	.L465
 3596              	.L445:
 3597              		.loc 1 684 0 discriminator 58
 3598 0844 2023     		movs	r3, #32
 3599 0846 04E0     		b	.L465
 3600              	.L444:
 3601              		.loc 1 684 0 discriminator 56
 3602 0848 2023     		movs	r3, #32
 3603 084a 02E0     		b	.L465
 3604              	.L443:
 3605              		.loc 1 684 0 discriminator 54
 3606 084c 0223     		movs	r3, #2
 3607 084e 00E0     		b	.L465
 3608              	.L442:
 3609              		.loc 1 684 0 discriminator 52
 3610 0850 0223     		movs	r3, #2
 3611              	.L465:
 3612              		.loc 1 684 0 discriminator 98
 3613 0852 1343     		orrs	r3, r3, r2
 3614 0854 4B60     		str	r3, [r1, #4]
 3615              	.L441:
 685:Drivers/STM32L4xx_HAL_Driver/Src/stm32l4xx_hal_dma.c **** 
 686:Drivers/STM32L4xx_HAL_Driver/Src/stm32l4xx_hal_dma.c ****     /* The selected Channelx EN bit is cleared (DMA is disabled and
 687:Drivers/STM32L4xx_HAL_Driver/Src/stm32l4xx_hal_dma.c ****     all transfers are complete) */
 688:Drivers/STM32L4xx_HAL_Driver/Src/stm32l4xx_hal_dma.c ****     hdma->State = HAL_DMA_STATE_READY;
 3616              		.loc 1 688 0 is_stmt 1
 3617 0856 FB68     		ldr	r3, [r7, #12]
 3618 0858 0122     		movs	r2, #1
 3619 085a 83F82520 		strb	r2, [r3, #37]
 3620 085e 06E1     		b	.L466
 3621              	.L522:
 3622              		.align	2
 3623              	.L521:
 3624 0860 80000240 		.word	1073873024
 3625 0864 00040240 		.word	1073873920
 3626 0868 00000240 		.word	1073872896
 3627 086c 08000240 		.word	1073872904
 3628 0870 08040240 		.word	1073873928
 3629 0874 1C000240 		.word	1073872924
 3630 0878 1C040240 		.word	1073873948
 3631 087c 30000240 		.word	1073872944
 3632 0880 30040240 		.word	1073873968
 3633 0884 44000240 		.word	1073872964
 3634 0888 44040240 		.word	1073873988
 3635 088c 58000240 		.word	1073872984
 3636 0890 58040240 		.word	1073874008
 3637 0894 6C000240 		.word	1073873004
 3638 0898 6C040240 		.word	1073874028
 3639              	.L415:
 689:Drivers/STM32L4xx_HAL_Driver/Src/stm32l4xx_hal_dma.c **** 
 690:Drivers/STM32L4xx_HAL_Driver/Src/stm32l4xx_hal_dma.c ****   }
 691:Drivers/STM32L4xx_HAL_Driver/Src/stm32l4xx_hal_dma.c ****   else
 692:Drivers/STM32L4xx_HAL_Driver/Src/stm32l4xx_hal_dma.c ****   {
 693:Drivers/STM32L4xx_HAL_Driver/Src/stm32l4xx_hal_dma.c ****     /* Clear the half transfer complete flag */
 694:Drivers/STM32L4xx_HAL_Driver/Src/stm32l4xx_hal_dma.c ****     __HAL_DMA_CLEAR_FLAG(hdma, __HAL_DMA_GET_HT_FLAG_INDEX(hdma));
 3640              		.loc 1 694 0
ARM GAS  /tmp/cccQDy3L.s 			page 77


 3641 089c FB68     		ldr	r3, [r7, #12]
 3642 089e 1B68     		ldr	r3, [r3]
 3643 08a0 1A46     		mov	r2, r3
 3644 08a2 774B     		ldr	r3, .L523
 3645 08a4 9A42     		cmp	r2, r3
 3646 08a6 6FD9     		bls	.L467
 3647              		.loc 1 694 0 is_stmt 0 discriminator 1
 3648 08a8 7649     		ldr	r1, .L523+4
 3649 08aa 764B     		ldr	r3, .L523+4
 3650 08ac 5A68     		ldr	r2, [r3, #4]
 3651 08ae FB68     		ldr	r3, [r7, #12]
 3652 08b0 1B68     		ldr	r3, [r3]
 3653 08b2 1846     		mov	r0, r3
 3654 08b4 744B     		ldr	r3, .L523+8
 3655 08b6 9842     		cmp	r0, r3
 3656 08b8 62D0     		beq	.L468
 3657              		.loc 1 694 0 discriminator 3
 3658 08ba FB68     		ldr	r3, [r7, #12]
 3659 08bc 1B68     		ldr	r3, [r3]
 3660 08be 1846     		mov	r0, r3
 3661 08c0 724B     		ldr	r3, .L523+12
 3662 08c2 9842     		cmp	r0, r3
 3663 08c4 5AD0     		beq	.L469
 3664              		.loc 1 694 0 discriminator 5
 3665 08c6 FB68     		ldr	r3, [r7, #12]
 3666 08c8 1B68     		ldr	r3, [r3]
 3667 08ca 1846     		mov	r0, r3
 3668 08cc 704B     		ldr	r3, .L523+16
 3669 08ce 9842     		cmp	r0, r3
 3670 08d0 52D0     		beq	.L470
 3671              		.loc 1 694 0 discriminator 7
 3672 08d2 FB68     		ldr	r3, [r7, #12]
 3673 08d4 1B68     		ldr	r3, [r3]
 3674 08d6 1846     		mov	r0, r3
 3675 08d8 6E4B     		ldr	r3, .L523+20
 3676 08da 9842     		cmp	r0, r3
 3677 08dc 4AD0     		beq	.L471
 3678              		.loc 1 694 0 discriminator 9
 3679 08de FB68     		ldr	r3, [r7, #12]
 3680 08e0 1B68     		ldr	r3, [r3]
 3681 08e2 1846     		mov	r0, r3
 3682 08e4 6C4B     		ldr	r3, .L523+24
 3683 08e6 9842     		cmp	r0, r3
 3684 08e8 41D0     		beq	.L472
 3685              		.loc 1 694 0 discriminator 11
 3686 08ea FB68     		ldr	r3, [r7, #12]
 3687 08ec 1B68     		ldr	r3, [r3]
 3688 08ee 1846     		mov	r0, r3
 3689 08f0 6A4B     		ldr	r3, .L523+28
 3690 08f2 9842     		cmp	r0, r3
 3691 08f4 38D0     		beq	.L473
 3692              		.loc 1 694 0 discriminator 13
 3693 08f6 FB68     		ldr	r3, [r7, #12]
 3694 08f8 1B68     		ldr	r3, [r3]
 3695 08fa 1846     		mov	r0, r3
 3696 08fc 684B     		ldr	r3, .L523+32
 3697 08fe 9842     		cmp	r0, r3
ARM GAS  /tmp/cccQDy3L.s 			page 78


 3698 0900 2FD0     		beq	.L474
 3699              		.loc 1 694 0 discriminator 15
 3700 0902 FB68     		ldr	r3, [r7, #12]
 3701 0904 1B68     		ldr	r3, [r3]
 3702 0906 1846     		mov	r0, r3
 3703 0908 664B     		ldr	r3, .L523+36
 3704 090a 9842     		cmp	r0, r3
 3705 090c 26D0     		beq	.L475
 3706              		.loc 1 694 0 discriminator 17
 3707 090e FB68     		ldr	r3, [r7, #12]
 3708 0910 1B68     		ldr	r3, [r3]
 3709 0912 1846     		mov	r0, r3
 3710 0914 644B     		ldr	r3, .L523+40
 3711 0916 9842     		cmp	r0, r3
 3712 0918 1DD0     		beq	.L476
 3713              		.loc 1 694 0 discriminator 19
 3714 091a FB68     		ldr	r3, [r7, #12]
 3715 091c 1B68     		ldr	r3, [r3]
 3716 091e 1846     		mov	r0, r3
 3717 0920 624B     		ldr	r3, .L523+44
 3718 0922 9842     		cmp	r0, r3
 3719 0924 14D0     		beq	.L477
 3720              		.loc 1 694 0 discriminator 21
 3721 0926 FB68     		ldr	r3, [r7, #12]
 3722 0928 1B68     		ldr	r3, [r3]
 3723 092a 1846     		mov	r0, r3
 3724 092c 604B     		ldr	r3, .L523+48
 3725 092e 9842     		cmp	r0, r3
 3726 0930 0BD0     		beq	.L478
 3727              		.loc 1 694 0 discriminator 23
 3728 0932 FB68     		ldr	r3, [r7, #12]
 3729 0934 1B68     		ldr	r3, [r3]
 3730 0936 1846     		mov	r0, r3
 3731 0938 5E4B     		ldr	r3, .L523+52
 3732 093a 9842     		cmp	r0, r3
 3733 093c 02D1     		bne	.L479
 3734              		.loc 1 694 0 discriminator 25
 3735 093e 4FF48003 		mov	r3, #4194304
 3736 0942 1EE0     		b	.L491
 3737              	.L479:
 3738              		.loc 1 694 0 discriminator 26
 3739 0944 4FF08063 		mov	r3, #67108864
 3740 0948 1BE0     		b	.L491
 3741              	.L478:
 3742              		.loc 1 694 0 discriminator 24
 3743 094a 4FF48003 		mov	r3, #4194304
 3744 094e 18E0     		b	.L491
 3745              	.L477:
 3746              		.loc 1 694 0 discriminator 22
 3747 0950 4FF48023 		mov	r3, #262144
 3748 0954 15E0     		b	.L491
 3749              	.L476:
 3750              		.loc 1 694 0 discriminator 20
 3751 0956 4FF48023 		mov	r3, #262144
 3752 095a 12E0     		b	.L491
 3753              	.L475:
 3754              		.loc 1 694 0 discriminator 18
ARM GAS  /tmp/cccQDy3L.s 			page 79


 3755 095c 4FF48043 		mov	r3, #16384
 3756 0960 0FE0     		b	.L491
 3757              	.L474:
 3758              		.loc 1 694 0 discriminator 16
 3759 0962 4FF48043 		mov	r3, #16384
 3760 0966 0CE0     		b	.L491
 3761              	.L473:
 3762              		.loc 1 694 0 discriminator 14
 3763 0968 4FF48063 		mov	r3, #1024
 3764 096c 09E0     		b	.L491
 3765              	.L472:
 3766              		.loc 1 694 0 discriminator 12
 3767 096e 4FF48063 		mov	r3, #1024
 3768 0972 06E0     		b	.L491
 3769              	.L471:
 3770              		.loc 1 694 0 discriminator 10
 3771 0974 4023     		movs	r3, #64
 3772 0976 04E0     		b	.L491
 3773              	.L470:
 3774              		.loc 1 694 0 discriminator 8
 3775 0978 4023     		movs	r3, #64
 3776 097a 02E0     		b	.L491
 3777              	.L469:
 3778              		.loc 1 694 0 discriminator 6
 3779 097c 0423     		movs	r3, #4
 3780 097e 00E0     		b	.L491
 3781              	.L468:
 3782              		.loc 1 694 0 discriminator 4
 3783 0980 0423     		movs	r3, #4
 3784              	.L491:
 3785              		.loc 1 694 0 discriminator 50
 3786 0982 1343     		orrs	r3, r3, r2
 3787 0984 4B60     		str	r3, [r1, #4]
 3788 0986 6EE0     		b	.L492
 3789              	.L467:
 3790              		.loc 1 694 0 discriminator 2
 3791 0988 4B49     		ldr	r1, .L523+56
 3792 098a 4B4B     		ldr	r3, .L523+56
 3793 098c 5A68     		ldr	r2, [r3, #4]
 3794 098e FB68     		ldr	r3, [r7, #12]
 3795 0990 1B68     		ldr	r3, [r3]
 3796 0992 1846     		mov	r0, r3
 3797 0994 3C4B     		ldr	r3, .L523+8
 3798 0996 9842     		cmp	r0, r3
 3799 0998 62D0     		beq	.L493
 3800              		.loc 1 694 0 discriminator 51
 3801 099a FB68     		ldr	r3, [r7, #12]
 3802 099c 1B68     		ldr	r3, [r3]
 3803 099e 1846     		mov	r0, r3
 3804 09a0 3A4B     		ldr	r3, .L523+12
 3805 09a2 9842     		cmp	r0, r3
 3806 09a4 5AD0     		beq	.L494
 3807              		.loc 1 694 0 discriminator 53
 3808 09a6 FB68     		ldr	r3, [r7, #12]
 3809 09a8 1B68     		ldr	r3, [r3]
 3810 09aa 1846     		mov	r0, r3
 3811 09ac 384B     		ldr	r3, .L523+16
ARM GAS  /tmp/cccQDy3L.s 			page 80


 3812 09ae 9842     		cmp	r0, r3
 3813 09b0 52D0     		beq	.L495
 3814              		.loc 1 694 0 discriminator 55
 3815 09b2 FB68     		ldr	r3, [r7, #12]
 3816 09b4 1B68     		ldr	r3, [r3]
 3817 09b6 1846     		mov	r0, r3
 3818 09b8 364B     		ldr	r3, .L523+20
 3819 09ba 9842     		cmp	r0, r3
 3820 09bc 4AD0     		beq	.L496
 3821              		.loc 1 694 0 discriminator 57
 3822 09be FB68     		ldr	r3, [r7, #12]
 3823 09c0 1B68     		ldr	r3, [r3]
 3824 09c2 1846     		mov	r0, r3
 3825 09c4 344B     		ldr	r3, .L523+24
 3826 09c6 9842     		cmp	r0, r3
 3827 09c8 41D0     		beq	.L497
 3828              		.loc 1 694 0 discriminator 59
 3829 09ca FB68     		ldr	r3, [r7, #12]
 3830 09cc 1B68     		ldr	r3, [r3]
 3831 09ce 1846     		mov	r0, r3
 3832 09d0 324B     		ldr	r3, .L523+28
 3833 09d2 9842     		cmp	r0, r3
 3834 09d4 38D0     		beq	.L498
 3835              		.loc 1 694 0 discriminator 61
 3836 09d6 FB68     		ldr	r3, [r7, #12]
 3837 09d8 1B68     		ldr	r3, [r3]
 3838 09da 1846     		mov	r0, r3
 3839 09dc 304B     		ldr	r3, .L523+32
 3840 09de 9842     		cmp	r0, r3
 3841 09e0 2FD0     		beq	.L499
 3842              		.loc 1 694 0 discriminator 63
 3843 09e2 FB68     		ldr	r3, [r7, #12]
 3844 09e4 1B68     		ldr	r3, [r3]
 3845 09e6 1846     		mov	r0, r3
 3846 09e8 2E4B     		ldr	r3, .L523+36
 3847 09ea 9842     		cmp	r0, r3
 3848 09ec 26D0     		beq	.L500
 3849              		.loc 1 694 0 discriminator 65
 3850 09ee FB68     		ldr	r3, [r7, #12]
 3851 09f0 1B68     		ldr	r3, [r3]
 3852 09f2 1846     		mov	r0, r3
 3853 09f4 2C4B     		ldr	r3, .L523+40
 3854 09f6 9842     		cmp	r0, r3
 3855 09f8 1DD0     		beq	.L501
 3856              		.loc 1 694 0 discriminator 67
 3857 09fa FB68     		ldr	r3, [r7, #12]
 3858 09fc 1B68     		ldr	r3, [r3]
 3859 09fe 1846     		mov	r0, r3
 3860 0a00 2A4B     		ldr	r3, .L523+44
 3861 0a02 9842     		cmp	r0, r3
 3862 0a04 14D0     		beq	.L502
 3863              		.loc 1 694 0 discriminator 69
 3864 0a06 FB68     		ldr	r3, [r7, #12]
 3865 0a08 1B68     		ldr	r3, [r3]
 3866 0a0a 1846     		mov	r0, r3
 3867 0a0c 284B     		ldr	r3, .L523+48
 3868 0a0e 9842     		cmp	r0, r3
ARM GAS  /tmp/cccQDy3L.s 			page 81


 3869 0a10 0BD0     		beq	.L503
 3870              		.loc 1 694 0 discriminator 71
 3871 0a12 FB68     		ldr	r3, [r7, #12]
 3872 0a14 1B68     		ldr	r3, [r3]
 3873 0a16 1846     		mov	r0, r3
 3874 0a18 264B     		ldr	r3, .L523+52
 3875 0a1a 9842     		cmp	r0, r3
 3876 0a1c 02D1     		bne	.L504
 3877              		.loc 1 694 0 discriminator 73
 3878 0a1e 4FF48003 		mov	r3, #4194304
 3879 0a22 1EE0     		b	.L516
 3880              	.L504:
 3881              		.loc 1 694 0 discriminator 74
 3882 0a24 4FF08063 		mov	r3, #67108864
 3883 0a28 1BE0     		b	.L516
 3884              	.L503:
 3885              		.loc 1 694 0 discriminator 72
 3886 0a2a 4FF48003 		mov	r3, #4194304
 3887 0a2e 18E0     		b	.L516
 3888              	.L502:
 3889              		.loc 1 694 0 discriminator 70
 3890 0a30 4FF48023 		mov	r3, #262144
 3891 0a34 15E0     		b	.L516
 3892              	.L501:
 3893              		.loc 1 694 0 discriminator 68
 3894 0a36 4FF48023 		mov	r3, #262144
 3895 0a3a 12E0     		b	.L516
 3896              	.L500:
 3897              		.loc 1 694 0 discriminator 66
 3898 0a3c 4FF48043 		mov	r3, #16384
 3899 0a40 0FE0     		b	.L516
 3900              	.L499:
 3901              		.loc 1 694 0 discriminator 64
 3902 0a42 4FF48043 		mov	r3, #16384
 3903 0a46 0CE0     		b	.L516
 3904              	.L498:
 3905              		.loc 1 694 0 discriminator 62
 3906 0a48 4FF48063 		mov	r3, #1024
 3907 0a4c 09E0     		b	.L516
 3908              	.L497:
 3909              		.loc 1 694 0 discriminator 60
 3910 0a4e 4FF48063 		mov	r3, #1024
 3911 0a52 06E0     		b	.L516
 3912              	.L496:
 3913              		.loc 1 694 0 discriminator 58
 3914 0a54 4023     		movs	r3, #64
 3915 0a56 04E0     		b	.L516
 3916              	.L495:
 3917              		.loc 1 694 0 discriminator 56
 3918 0a58 4023     		movs	r3, #64
 3919 0a5a 02E0     		b	.L516
 3920              	.L494:
 3921              		.loc 1 694 0 discriminator 54
 3922 0a5c 0423     		movs	r3, #4
 3923 0a5e 00E0     		b	.L516
 3924              	.L493:
 3925              		.loc 1 694 0 discriminator 52
ARM GAS  /tmp/cccQDy3L.s 			page 82


 3926 0a60 0423     		movs	r3, #4
 3927              	.L516:
 3928              		.loc 1 694 0 discriminator 98
 3929 0a62 1343     		orrs	r3, r3, r2
 3930 0a64 4B60     		str	r3, [r1, #4]
 3931              	.L492:
 695:Drivers/STM32L4xx_HAL_Driver/Src/stm32l4xx_hal_dma.c **** 
 696:Drivers/STM32L4xx_HAL_Driver/Src/stm32l4xx_hal_dma.c ****     hdma->State = HAL_DMA_STATE_READY_HALF;
 3932              		.loc 1 696 0 is_stmt 1
 3933 0a66 FB68     		ldr	r3, [r7, #12]
 3934 0a68 1122     		movs	r2, #17
 3935 0a6a 83F82520 		strb	r2, [r3, #37]
 3936              	.L466:
 697:Drivers/STM32L4xx_HAL_Driver/Src/stm32l4xx_hal_dma.c ****   }
 698:Drivers/STM32L4xx_HAL_Driver/Src/stm32l4xx_hal_dma.c ****   
 699:Drivers/STM32L4xx_HAL_Driver/Src/stm32l4xx_hal_dma.c ****   /* Process unlocked */
 700:Drivers/STM32L4xx_HAL_Driver/Src/stm32l4xx_hal_dma.c ****   __HAL_UNLOCK(hdma);  
 3937              		.loc 1 700 0
 3938 0a6e FB68     		ldr	r3, [r7, #12]
 3939 0a70 0022     		movs	r2, #0
 3940 0a72 83F82420 		strb	r2, [r3, #36]
 701:Drivers/STM32L4xx_HAL_Driver/Src/stm32l4xx_hal_dma.c **** 
 702:Drivers/STM32L4xx_HAL_Driver/Src/stm32l4xx_hal_dma.c ****   return HAL_OK;
 3941              		.loc 1 702 0
 3942 0a76 0023     		movs	r3, #0
 3943              	.L410:
 703:Drivers/STM32L4xx_HAL_Driver/Src/stm32l4xx_hal_dma.c **** }
 3944              		.loc 1 703 0
 3945 0a78 1846     		mov	r0, r3
 3946 0a7a 1837     		adds	r7, r7, #24
 3947              	.LCFI30:
 3948              		.cfi_def_cfa_offset 8
 3949 0a7c BD46     		mov	sp, r7
 3950              	.LCFI31:
 3951              		.cfi_def_cfa_register 13
 3952              		@ sp needed
 3953 0a7e 80BD     		pop	{r7, pc}
 3954              	.L524:
 3955              		.align	2
 3956              	.L523:
 3957 0a80 80000240 		.word	1073873024
 3958 0a84 00040240 		.word	1073873920
 3959 0a88 08000240 		.word	1073872904
 3960 0a8c 08040240 		.word	1073873928
 3961 0a90 1C000240 		.word	1073872924
 3962 0a94 1C040240 		.word	1073873948
 3963 0a98 30000240 		.word	1073872944
 3964 0a9c 30040240 		.word	1073873968
 3965 0aa0 44000240 		.word	1073872964
 3966 0aa4 44040240 		.word	1073873988
 3967 0aa8 58000240 		.word	1073872984
 3968 0aac 58040240 		.word	1073874008
 3969 0ab0 6C000240 		.word	1073873004
 3970 0ab4 6C040240 		.word	1073874028
 3971 0ab8 00000240 		.word	1073872896
 3972              		.cfi_endproc
 3973              	.LFE130:
ARM GAS  /tmp/cccQDy3L.s 			page 83


 3975              		.section	.text.HAL_DMA_IRQHandler,"ax",%progbits
 3976              		.align	2
 3977              		.global	HAL_DMA_IRQHandler
 3978              		.thumb
 3979              		.thumb_func
 3981              	HAL_DMA_IRQHandler:
 3982              	.LFB131:
 704:Drivers/STM32L4xx_HAL_Driver/Src/stm32l4xx_hal_dma.c **** 
 705:Drivers/STM32L4xx_HAL_Driver/Src/stm32l4xx_hal_dma.c **** /**
 706:Drivers/STM32L4xx_HAL_Driver/Src/stm32l4xx_hal_dma.c ****   * @brief  Handle DMA interrupt request.
 707:Drivers/STM32L4xx_HAL_Driver/Src/stm32l4xx_hal_dma.c ****   * @param  hdma: pointer to a DMA_HandleTypeDef structure that contains
 708:Drivers/STM32L4xx_HAL_Driver/Src/stm32l4xx_hal_dma.c ****   *               the configuration information for the specified DMA Channel.
 709:Drivers/STM32L4xx_HAL_Driver/Src/stm32l4xx_hal_dma.c ****   * @retval None
 710:Drivers/STM32L4xx_HAL_Driver/Src/stm32l4xx_hal_dma.c ****   */
 711:Drivers/STM32L4xx_HAL_Driver/Src/stm32l4xx_hal_dma.c **** void HAL_DMA_IRQHandler(DMA_HandleTypeDef *hdma)
 712:Drivers/STM32L4xx_HAL_Driver/Src/stm32l4xx_hal_dma.c **** {
 3983              		.loc 1 712 0
 3984              		.cfi_startproc
 3985              		@ args = 0, pretend = 0, frame = 8
 3986              		@ frame_needed = 1, uses_anonymous_args = 0
 3987 0000 80B5     		push	{r7, lr}
 3988              	.LCFI32:
 3989              		.cfi_def_cfa_offset 8
 3990              		.cfi_offset 7, -8
 3991              		.cfi_offset 14, -4
 3992 0002 82B0     		sub	sp, sp, #8
 3993              	.LCFI33:
 3994              		.cfi_def_cfa_offset 16
 3995 0004 00AF     		add	r7, sp, #0
 3996              	.LCFI34:
 3997              		.cfi_def_cfa_register 7
 3998 0006 7860     		str	r0, [r7, #4]
 713:Drivers/STM32L4xx_HAL_Driver/Src/stm32l4xx_hal_dma.c ****   /* Transfer Error Interrupt management ***************************************/
 714:Drivers/STM32L4xx_HAL_Driver/Src/stm32l4xx_hal_dma.c ****   if(__HAL_DMA_GET_FLAG(hdma, __HAL_DMA_GET_TE_FLAG_INDEX(hdma)) != RESET)
 3999              		.loc 1 714 0
 4000 0008 7B68     		ldr	r3, [r7, #4]
 4001 000a 1B68     		ldr	r3, [r3]
 4002 000c 1A46     		mov	r2, r3
 4003 000e 714B     		ldr	r3, .L831
 4004 0010 9A42     		cmp	r2, r3
 4005 0012 72D9     		bls	.L526
 4006              		.loc 1 714 0 is_stmt 0 discriminator 1
 4007 0014 704B     		ldr	r3, .L831+4
 4008 0016 1A68     		ldr	r2, [r3]
 4009 0018 7B68     		ldr	r3, [r7, #4]
 4010 001a 1B68     		ldr	r3, [r3]
 4011 001c 1946     		mov	r1, r3
 4012 001e 6F4B     		ldr	r3, .L831+8
 4013 0020 9942     		cmp	r1, r3
 4014 0022 62D0     		beq	.L527
 4015              		.loc 1 714 0 discriminator 3
 4016 0024 7B68     		ldr	r3, [r7, #4]
 4017 0026 1B68     		ldr	r3, [r3]
 4018 0028 1946     		mov	r1, r3
 4019 002a 6D4B     		ldr	r3, .L831+12
 4020 002c 9942     		cmp	r1, r3
 4021 002e 5AD0     		beq	.L528
ARM GAS  /tmp/cccQDy3L.s 			page 84


 4022              		.loc 1 714 0 discriminator 5
 4023 0030 7B68     		ldr	r3, [r7, #4]
 4024 0032 1B68     		ldr	r3, [r3]
 4025 0034 1946     		mov	r1, r3
 4026 0036 6B4B     		ldr	r3, .L831+16
 4027 0038 9942     		cmp	r1, r3
 4028 003a 52D0     		beq	.L529
 4029              		.loc 1 714 0 discriminator 7
 4030 003c 7B68     		ldr	r3, [r7, #4]
 4031 003e 1B68     		ldr	r3, [r3]
 4032 0040 1946     		mov	r1, r3
 4033 0042 694B     		ldr	r3, .L831+20
 4034 0044 9942     		cmp	r1, r3
 4035 0046 4AD0     		beq	.L530
 4036              		.loc 1 714 0 discriminator 9
 4037 0048 7B68     		ldr	r3, [r7, #4]
 4038 004a 1B68     		ldr	r3, [r3]
 4039 004c 1946     		mov	r1, r3
 4040 004e 674B     		ldr	r3, .L831+24
 4041 0050 9942     		cmp	r1, r3
 4042 0052 41D0     		beq	.L531
 4043              		.loc 1 714 0 discriminator 11
 4044 0054 7B68     		ldr	r3, [r7, #4]
 4045 0056 1B68     		ldr	r3, [r3]
 4046 0058 1946     		mov	r1, r3
 4047 005a 654B     		ldr	r3, .L831+28
 4048 005c 9942     		cmp	r1, r3
 4049 005e 38D0     		beq	.L532
 4050              		.loc 1 714 0 discriminator 13
 4051 0060 7B68     		ldr	r3, [r7, #4]
 4052 0062 1B68     		ldr	r3, [r3]
 4053 0064 1946     		mov	r1, r3
 4054 0066 634B     		ldr	r3, .L831+32
 4055 0068 9942     		cmp	r1, r3
 4056 006a 2FD0     		beq	.L533
 4057              		.loc 1 714 0 discriminator 15
 4058 006c 7B68     		ldr	r3, [r7, #4]
 4059 006e 1B68     		ldr	r3, [r3]
 4060 0070 1946     		mov	r1, r3
 4061 0072 614B     		ldr	r3, .L831+36
 4062 0074 9942     		cmp	r1, r3
 4063 0076 26D0     		beq	.L534
 4064              		.loc 1 714 0 discriminator 17
 4065 0078 7B68     		ldr	r3, [r7, #4]
 4066 007a 1B68     		ldr	r3, [r3]
 4067 007c 1946     		mov	r1, r3
 4068 007e 5F4B     		ldr	r3, .L831+40
 4069 0080 9942     		cmp	r1, r3
 4070 0082 1DD0     		beq	.L535
 4071              		.loc 1 714 0 discriminator 19
 4072 0084 7B68     		ldr	r3, [r7, #4]
 4073 0086 1B68     		ldr	r3, [r3]
 4074 0088 1946     		mov	r1, r3
 4075 008a 5D4B     		ldr	r3, .L831+44
 4076 008c 9942     		cmp	r1, r3
 4077 008e 14D0     		beq	.L536
 4078              		.loc 1 714 0 discriminator 21
ARM GAS  /tmp/cccQDy3L.s 			page 85


 4079 0090 7B68     		ldr	r3, [r7, #4]
 4080 0092 1B68     		ldr	r3, [r3]
 4081 0094 1946     		mov	r1, r3
 4082 0096 5B4B     		ldr	r3, .L831+48
 4083 0098 9942     		cmp	r1, r3
 4084 009a 0BD0     		beq	.L537
 4085              		.loc 1 714 0 discriminator 23
 4086 009c 7B68     		ldr	r3, [r7, #4]
 4087 009e 1B68     		ldr	r3, [r3]
 4088 00a0 1946     		mov	r1, r3
 4089 00a2 594B     		ldr	r3, .L831+52
 4090 00a4 9942     		cmp	r1, r3
 4091 00a6 02D1     		bne	.L538
 4092              		.loc 1 714 0 discriminator 25
 4093 00a8 4FF40003 		mov	r3, #8388608
 4094 00ac 1EE0     		b	.L550
 4095              	.L538:
 4096              		.loc 1 714 0 discriminator 26
 4097 00ae 4FF00063 		mov	r3, #134217728
 4098 00b2 1BE0     		b	.L550
 4099              	.L537:
 4100              		.loc 1 714 0 discriminator 24
 4101 00b4 4FF40003 		mov	r3, #8388608
 4102 00b8 18E0     		b	.L550
 4103              	.L536:
 4104              		.loc 1 714 0 discriminator 22
 4105 00ba 4FF40023 		mov	r3, #524288
 4106 00be 15E0     		b	.L550
 4107              	.L535:
 4108              		.loc 1 714 0 discriminator 20
 4109 00c0 4FF40023 		mov	r3, #524288
 4110 00c4 12E0     		b	.L550
 4111              	.L534:
 4112              		.loc 1 714 0 discriminator 18
 4113 00c6 4FF40043 		mov	r3, #32768
 4114 00ca 0FE0     		b	.L550
 4115              	.L533:
 4116              		.loc 1 714 0 discriminator 16
 4117 00cc 4FF40043 		mov	r3, #32768
 4118 00d0 0CE0     		b	.L550
 4119              	.L532:
 4120              		.loc 1 714 0 discriminator 14
 4121 00d2 4FF40063 		mov	r3, #2048
 4122 00d6 09E0     		b	.L550
 4123              	.L531:
 4124              		.loc 1 714 0 discriminator 12
 4125 00d8 4FF40063 		mov	r3, #2048
 4126 00dc 06E0     		b	.L550
 4127              	.L530:
 4128              		.loc 1 714 0 discriminator 10
 4129 00de 8023     		movs	r3, #128
 4130 00e0 04E0     		b	.L550
 4131              	.L529:
 4132              		.loc 1 714 0 discriminator 8
 4133 00e2 8023     		movs	r3, #128
 4134 00e4 02E0     		b	.L550
 4135              	.L528:
ARM GAS  /tmp/cccQDy3L.s 			page 86


 4136              		.loc 1 714 0 discriminator 6
 4137 00e6 0823     		movs	r3, #8
 4138 00e8 00E0     		b	.L550
 4139              	.L527:
 4140              		.loc 1 714 0 discriminator 4
 4141 00ea 0823     		movs	r3, #8
 4142              	.L550:
 4143              		.loc 1 714 0 discriminator 50
 4144 00ec 1340     		ands	r3, r3, r2
 4145 00ee 002B     		cmp	r3, #0
 4146 00f0 14BF     		ite	ne
 4147 00f2 0123     		movne	r3, #1
 4148 00f4 0023     		moveq	r3, #0
 4149 00f6 DBB2     		uxtb	r3, r3
 4150 00f8 91E0     		b	.L551
 4151              	.L526:
 4152              		.loc 1 714 0 discriminator 2
 4153 00fa 444B     		ldr	r3, .L831+56
 4154 00fc 1A68     		ldr	r2, [r3]
 4155 00fe 7B68     		ldr	r3, [r7, #4]
 4156 0100 1B68     		ldr	r3, [r3]
 4157 0102 1946     		mov	r1, r3
 4158 0104 354B     		ldr	r3, .L831+8
 4159 0106 9942     		cmp	r1, r3
 4160 0108 00F08280 		beq	.L552
 4161              		.loc 1 714 0 discriminator 52
 4162 010c 7B68     		ldr	r3, [r7, #4]
 4163 010e 1B68     		ldr	r3, [r3]
 4164 0110 1946     		mov	r1, r3
 4165 0112 334B     		ldr	r3, .L831+12
 4166 0114 9942     		cmp	r1, r3
 4167 0116 5AD0     		beq	.L553
 4168              		.loc 1 714 0 discriminator 54
 4169 0118 7B68     		ldr	r3, [r7, #4]
 4170 011a 1B68     		ldr	r3, [r3]
 4171 011c 1946     		mov	r1, r3
 4172 011e 314B     		ldr	r3, .L831+16
 4173 0120 9942     		cmp	r1, r3
 4174 0122 52D0     		beq	.L554
 4175              		.loc 1 714 0 discriminator 56
 4176 0124 7B68     		ldr	r3, [r7, #4]
 4177 0126 1B68     		ldr	r3, [r3]
 4178 0128 1946     		mov	r1, r3
 4179 012a 2F4B     		ldr	r3, .L831+20
 4180 012c 9942     		cmp	r1, r3
 4181 012e 4AD0     		beq	.L555
 4182              		.loc 1 714 0 discriminator 58
 4183 0130 7B68     		ldr	r3, [r7, #4]
 4184 0132 1B68     		ldr	r3, [r3]
 4185 0134 1946     		mov	r1, r3
 4186 0136 2D4B     		ldr	r3, .L831+24
 4187 0138 9942     		cmp	r1, r3
 4188 013a 41D0     		beq	.L556
 4189              		.loc 1 714 0 discriminator 60
 4190 013c 7B68     		ldr	r3, [r7, #4]
 4191 013e 1B68     		ldr	r3, [r3]
 4192 0140 1946     		mov	r1, r3
ARM GAS  /tmp/cccQDy3L.s 			page 87


 4193 0142 2B4B     		ldr	r3, .L831+28
 4194 0144 9942     		cmp	r1, r3
 4195 0146 38D0     		beq	.L557
 4196              		.loc 1 714 0 discriminator 62
 4197 0148 7B68     		ldr	r3, [r7, #4]
 4198 014a 1B68     		ldr	r3, [r3]
 4199 014c 1946     		mov	r1, r3
 4200 014e 294B     		ldr	r3, .L831+32
 4201 0150 9942     		cmp	r1, r3
 4202 0152 2FD0     		beq	.L558
 4203              		.loc 1 714 0 discriminator 64
 4204 0154 7B68     		ldr	r3, [r7, #4]
 4205 0156 1B68     		ldr	r3, [r3]
 4206 0158 1946     		mov	r1, r3
 4207 015a 274B     		ldr	r3, .L831+36
 4208 015c 9942     		cmp	r1, r3
 4209 015e 26D0     		beq	.L559
 4210              		.loc 1 714 0 discriminator 66
 4211 0160 7B68     		ldr	r3, [r7, #4]
 4212 0162 1B68     		ldr	r3, [r3]
 4213 0164 1946     		mov	r1, r3
 4214 0166 254B     		ldr	r3, .L831+40
 4215 0168 9942     		cmp	r1, r3
 4216 016a 1DD0     		beq	.L560
 4217              		.loc 1 714 0 discriminator 68
 4218 016c 7B68     		ldr	r3, [r7, #4]
 4219 016e 1B68     		ldr	r3, [r3]
 4220 0170 1946     		mov	r1, r3
 4221 0172 234B     		ldr	r3, .L831+44
 4222 0174 9942     		cmp	r1, r3
 4223 0176 14D0     		beq	.L561
 4224              		.loc 1 714 0 discriminator 70
 4225 0178 7B68     		ldr	r3, [r7, #4]
 4226 017a 1B68     		ldr	r3, [r3]
 4227 017c 1946     		mov	r1, r3
 4228 017e 214B     		ldr	r3, .L831+48
 4229 0180 9942     		cmp	r1, r3
 4230 0182 0BD0     		beq	.L562
 4231              		.loc 1 714 0 discriminator 72
 4232 0184 7B68     		ldr	r3, [r7, #4]
 4233 0186 1B68     		ldr	r3, [r3]
 4234 0188 1946     		mov	r1, r3
 4235 018a 1F4B     		ldr	r3, .L831+52
 4236 018c 9942     		cmp	r1, r3
 4237 018e 02D1     		bne	.L563
 4238              		.loc 1 714 0 discriminator 74
 4239 0190 4FF40003 		mov	r3, #8388608
 4240 0194 3DE0     		b	.L575
 4241              	.L563:
 4242              		.loc 1 714 0 discriminator 75
 4243 0196 4FF00063 		mov	r3, #134217728
 4244 019a 3AE0     		b	.L575
 4245              	.L562:
 4246              		.loc 1 714 0 discriminator 73
 4247 019c 4FF40003 		mov	r3, #8388608
 4248 01a0 37E0     		b	.L575
 4249              	.L561:
ARM GAS  /tmp/cccQDy3L.s 			page 88


 4250              		.loc 1 714 0 discriminator 71
 4251 01a2 4FF40023 		mov	r3, #524288
 4252 01a6 34E0     		b	.L575
 4253              	.L560:
 4254              		.loc 1 714 0 discriminator 69
 4255 01a8 4FF40023 		mov	r3, #524288
 4256 01ac 31E0     		b	.L575
 4257              	.L559:
 4258              		.loc 1 714 0 discriminator 67
 4259 01ae 4FF40043 		mov	r3, #32768
 4260 01b2 2EE0     		b	.L575
 4261              	.L558:
 4262              		.loc 1 714 0 discriminator 65
 4263 01b4 4FF40043 		mov	r3, #32768
 4264 01b8 2BE0     		b	.L575
 4265              	.L557:
 4266              		.loc 1 714 0 discriminator 63
 4267 01ba 4FF40063 		mov	r3, #2048
 4268 01be 28E0     		b	.L575
 4269              	.L556:
 4270              		.loc 1 714 0 discriminator 61
 4271 01c0 4FF40063 		mov	r3, #2048
 4272 01c4 25E0     		b	.L575
 4273              	.L555:
 4274              		.loc 1 714 0 discriminator 59
 4275 01c6 8023     		movs	r3, #128
 4276 01c8 23E0     		b	.L575
 4277              	.L554:
 4278              		.loc 1 714 0 discriminator 57
 4279 01ca 8023     		movs	r3, #128
 4280 01cc 21E0     		b	.L575
 4281              	.L553:
 4282              		.loc 1 714 0 discriminator 55
 4283 01ce 0823     		movs	r3, #8
 4284 01d0 1FE0     		b	.L575
 4285              	.L832:
 4286 01d2 00BF     		.align	2
 4287              	.L831:
 4288 01d4 80000240 		.word	1073873024
 4289 01d8 00040240 		.word	1073873920
 4290 01dc 08000240 		.word	1073872904
 4291 01e0 08040240 		.word	1073873928
 4292 01e4 1C000240 		.word	1073872924
 4293 01e8 1C040240 		.word	1073873948
 4294 01ec 30000240 		.word	1073872944
 4295 01f0 30040240 		.word	1073873968
 4296 01f4 44000240 		.word	1073872964
 4297 01f8 44040240 		.word	1073873988
 4298 01fc 58000240 		.word	1073872984
 4299 0200 58040240 		.word	1073874008
 4300 0204 6C000240 		.word	1073873004
 4301 0208 6C040240 		.word	1073874028
 4302 020c 00000240 		.word	1073872896
 4303              	.L552:
 4304              		.loc 1 714 0 discriminator 53
 4305 0210 0823     		movs	r3, #8
 4306              	.L575:
ARM GAS  /tmp/cccQDy3L.s 			page 89


 4307              		.loc 1 714 0 discriminator 99
 4308 0212 1340     		ands	r3, r3, r2
 4309 0214 002B     		cmp	r3, #0
 4310 0216 14BF     		ite	ne
 4311 0218 0123     		movne	r3, #1
 4312 021a 0023     		moveq	r3, #0
 4313 021c DBB2     		uxtb	r3, r3
 4314              	.L551:
 4315              		.loc 1 714 0 discriminator 100
 4316 021e 002B     		cmp	r3, #0
 4317 0220 00F02B81 		beq	.L576
 715:Drivers/STM32L4xx_HAL_Driver/Src/stm32l4xx_hal_dma.c ****   {
 716:Drivers/STM32L4xx_HAL_Driver/Src/stm32l4xx_hal_dma.c ****     if(__HAL_DMA_GET_IT_SOURCE(hdma, DMA_IT_TE) != RESET)
 4318              		.loc 1 716 0 is_stmt 1
 4319 0224 7B68     		ldr	r3, [r7, #4]
 4320 0226 1B68     		ldr	r3, [r3]
 4321 0228 1B68     		ldr	r3, [r3]
 4322 022a 03F00803 		and	r3, r3, #8
 4323 022e 002B     		cmp	r3, #0
 4324 0230 00F02381 		beq	.L576
 717:Drivers/STM32L4xx_HAL_Driver/Src/stm32l4xx_hal_dma.c ****     {
 718:Drivers/STM32L4xx_HAL_Driver/Src/stm32l4xx_hal_dma.c ****       /* Disable the transfer error interrupt */
 719:Drivers/STM32L4xx_HAL_Driver/Src/stm32l4xx_hal_dma.c ****       __HAL_DMA_DISABLE_IT(hdma, DMA_IT_TE);
 4325              		.loc 1 719 0
 4326 0234 7B68     		ldr	r3, [r7, #4]
 4327 0236 1B68     		ldr	r3, [r3]
 4328 0238 7A68     		ldr	r2, [r7, #4]
 4329 023a 1268     		ldr	r2, [r2]
 4330 023c 1268     		ldr	r2, [r2]
 4331 023e 22F00802 		bic	r2, r2, #8
 4332 0242 1A60     		str	r2, [r3]
 720:Drivers/STM32L4xx_HAL_Driver/Src/stm32l4xx_hal_dma.c **** 
 721:Drivers/STM32L4xx_HAL_Driver/Src/stm32l4xx_hal_dma.c ****       /* Clear the transfer error flag */
 722:Drivers/STM32L4xx_HAL_Driver/Src/stm32l4xx_hal_dma.c ****       __HAL_DMA_CLEAR_FLAG(hdma, __HAL_DMA_GET_TE_FLAG_INDEX(hdma));
 4333              		.loc 1 722 0
 4334 0244 7B68     		ldr	r3, [r7, #4]
 4335 0246 1B68     		ldr	r3, [r3]
 4336 0248 1A46     		mov	r2, r3
 4337 024a 704B     		ldr	r3, .L833
 4338 024c 9A42     		cmp	r2, r3
 4339 024e 6FD9     		bls	.L577
 4340              		.loc 1 722 0 is_stmt 0 discriminator 1
 4341 0250 6F49     		ldr	r1, .L833+4
 4342 0252 6F4B     		ldr	r3, .L833+4
 4343 0254 5A68     		ldr	r2, [r3, #4]
 4344 0256 7B68     		ldr	r3, [r7, #4]
 4345 0258 1B68     		ldr	r3, [r3]
 4346 025a 1846     		mov	r0, r3
 4347 025c 6D4B     		ldr	r3, .L833+8
 4348 025e 9842     		cmp	r0, r3
 4349 0260 62D0     		beq	.L578
 4350              		.loc 1 722 0 discriminator 3
 4351 0262 7B68     		ldr	r3, [r7, #4]
 4352 0264 1B68     		ldr	r3, [r3]
 4353 0266 1846     		mov	r0, r3
 4354 0268 6B4B     		ldr	r3, .L833+12
 4355 026a 9842     		cmp	r0, r3
ARM GAS  /tmp/cccQDy3L.s 			page 90


 4356 026c 5AD0     		beq	.L579
 4357              		.loc 1 722 0 discriminator 5
 4358 026e 7B68     		ldr	r3, [r7, #4]
 4359 0270 1B68     		ldr	r3, [r3]
 4360 0272 1846     		mov	r0, r3
 4361 0274 694B     		ldr	r3, .L833+16
 4362 0276 9842     		cmp	r0, r3
 4363 0278 52D0     		beq	.L580
 4364              		.loc 1 722 0 discriminator 7
 4365 027a 7B68     		ldr	r3, [r7, #4]
 4366 027c 1B68     		ldr	r3, [r3]
 4367 027e 1846     		mov	r0, r3
 4368 0280 674B     		ldr	r3, .L833+20
 4369 0282 9842     		cmp	r0, r3
 4370 0284 4AD0     		beq	.L581
 4371              		.loc 1 722 0 discriminator 9
 4372 0286 7B68     		ldr	r3, [r7, #4]
 4373 0288 1B68     		ldr	r3, [r3]
 4374 028a 1846     		mov	r0, r3
 4375 028c 654B     		ldr	r3, .L833+24
 4376 028e 9842     		cmp	r0, r3
 4377 0290 41D0     		beq	.L582
 4378              		.loc 1 722 0 discriminator 11
 4379 0292 7B68     		ldr	r3, [r7, #4]
 4380 0294 1B68     		ldr	r3, [r3]
 4381 0296 1846     		mov	r0, r3
 4382 0298 634B     		ldr	r3, .L833+28
 4383 029a 9842     		cmp	r0, r3
 4384 029c 38D0     		beq	.L583
 4385              		.loc 1 722 0 discriminator 13
 4386 029e 7B68     		ldr	r3, [r7, #4]
 4387 02a0 1B68     		ldr	r3, [r3]
 4388 02a2 1846     		mov	r0, r3
 4389 02a4 614B     		ldr	r3, .L833+32
 4390 02a6 9842     		cmp	r0, r3
 4391 02a8 2FD0     		beq	.L584
 4392              		.loc 1 722 0 discriminator 15
 4393 02aa 7B68     		ldr	r3, [r7, #4]
 4394 02ac 1B68     		ldr	r3, [r3]
 4395 02ae 1846     		mov	r0, r3
 4396 02b0 5F4B     		ldr	r3, .L833+36
 4397 02b2 9842     		cmp	r0, r3
 4398 02b4 26D0     		beq	.L585
 4399              		.loc 1 722 0 discriminator 17
 4400 02b6 7B68     		ldr	r3, [r7, #4]
 4401 02b8 1B68     		ldr	r3, [r3]
 4402 02ba 1846     		mov	r0, r3
 4403 02bc 5D4B     		ldr	r3, .L833+40
 4404 02be 9842     		cmp	r0, r3
 4405 02c0 1DD0     		beq	.L586
 4406              		.loc 1 722 0 discriminator 19
 4407 02c2 7B68     		ldr	r3, [r7, #4]
 4408 02c4 1B68     		ldr	r3, [r3]
 4409 02c6 1846     		mov	r0, r3
 4410 02c8 5B4B     		ldr	r3, .L833+44
 4411 02ca 9842     		cmp	r0, r3
 4412 02cc 14D0     		beq	.L587
ARM GAS  /tmp/cccQDy3L.s 			page 91


 4413              		.loc 1 722 0 discriminator 21
 4414 02ce 7B68     		ldr	r3, [r7, #4]
 4415 02d0 1B68     		ldr	r3, [r3]
 4416 02d2 1846     		mov	r0, r3
 4417 02d4 594B     		ldr	r3, .L833+48
 4418 02d6 9842     		cmp	r0, r3
 4419 02d8 0BD0     		beq	.L588
 4420              		.loc 1 722 0 discriminator 23
 4421 02da 7B68     		ldr	r3, [r7, #4]
 4422 02dc 1B68     		ldr	r3, [r3]
 4423 02de 1846     		mov	r0, r3
 4424 02e0 574B     		ldr	r3, .L833+52
 4425 02e2 9842     		cmp	r0, r3
 4426 02e4 02D1     		bne	.L589
 4427              		.loc 1 722 0 discriminator 25
 4428 02e6 4FF40003 		mov	r3, #8388608
 4429 02ea 1EE0     		b	.L601
 4430              	.L589:
 4431              		.loc 1 722 0 discriminator 26
 4432 02ec 4FF00063 		mov	r3, #134217728
 4433 02f0 1BE0     		b	.L601
 4434              	.L588:
 4435              		.loc 1 722 0 discriminator 24
 4436 02f2 4FF40003 		mov	r3, #8388608
 4437 02f6 18E0     		b	.L601
 4438              	.L587:
 4439              		.loc 1 722 0 discriminator 22
 4440 02f8 4FF40023 		mov	r3, #524288
 4441 02fc 15E0     		b	.L601
 4442              	.L586:
 4443              		.loc 1 722 0 discriminator 20
 4444 02fe 4FF40023 		mov	r3, #524288
 4445 0302 12E0     		b	.L601
 4446              	.L585:
 4447              		.loc 1 722 0 discriminator 18
 4448 0304 4FF40043 		mov	r3, #32768
 4449 0308 0FE0     		b	.L601
 4450              	.L584:
 4451              		.loc 1 722 0 discriminator 16
 4452 030a 4FF40043 		mov	r3, #32768
 4453 030e 0CE0     		b	.L601
 4454              	.L583:
 4455              		.loc 1 722 0 discriminator 14
 4456 0310 4FF40063 		mov	r3, #2048
 4457 0314 09E0     		b	.L601
 4458              	.L582:
 4459              		.loc 1 722 0 discriminator 12
 4460 0316 4FF40063 		mov	r3, #2048
 4461 031a 06E0     		b	.L601
 4462              	.L581:
 4463              		.loc 1 722 0 discriminator 10
 4464 031c 8023     		movs	r3, #128
 4465 031e 04E0     		b	.L601
 4466              	.L580:
 4467              		.loc 1 722 0 discriminator 8
 4468 0320 8023     		movs	r3, #128
 4469 0322 02E0     		b	.L601
ARM GAS  /tmp/cccQDy3L.s 			page 92


 4470              	.L579:
 4471              		.loc 1 722 0 discriminator 6
 4472 0324 0823     		movs	r3, #8
 4473 0326 00E0     		b	.L601
 4474              	.L578:
 4475              		.loc 1 722 0 discriminator 4
 4476 0328 0823     		movs	r3, #8
 4477              	.L601:
 4478              		.loc 1 722 0 discriminator 50
 4479 032a 1343     		orrs	r3, r3, r2
 4480 032c 4B60     		str	r3, [r1, #4]
 4481 032e 8EE0     		b	.L602
 4482              	.L577:
 4483              		.loc 1 722 0 discriminator 2
 4484 0330 4449     		ldr	r1, .L833+56
 4485 0332 444B     		ldr	r3, .L833+56
 4486 0334 5A68     		ldr	r2, [r3, #4]
 4487 0336 7B68     		ldr	r3, [r7, #4]
 4488 0338 1B68     		ldr	r3, [r3]
 4489 033a 1846     		mov	r0, r3
 4490 033c 354B     		ldr	r3, .L833+8
 4491 033e 9842     		cmp	r0, r3
 4492 0340 00F08280 		beq	.L603
 4493              		.loc 1 722 0 discriminator 51
 4494 0344 7B68     		ldr	r3, [r7, #4]
 4495 0346 1B68     		ldr	r3, [r3]
 4496 0348 1846     		mov	r0, r3
 4497 034a 334B     		ldr	r3, .L833+12
 4498 034c 9842     		cmp	r0, r3
 4499 034e 5AD0     		beq	.L604
 4500              		.loc 1 722 0 discriminator 53
 4501 0350 7B68     		ldr	r3, [r7, #4]
 4502 0352 1B68     		ldr	r3, [r3]
 4503 0354 1846     		mov	r0, r3
 4504 0356 314B     		ldr	r3, .L833+16
 4505 0358 9842     		cmp	r0, r3
 4506 035a 52D0     		beq	.L605
 4507              		.loc 1 722 0 discriminator 55
 4508 035c 7B68     		ldr	r3, [r7, #4]
 4509 035e 1B68     		ldr	r3, [r3]
 4510 0360 1846     		mov	r0, r3
 4511 0362 2F4B     		ldr	r3, .L833+20
 4512 0364 9842     		cmp	r0, r3
 4513 0366 4AD0     		beq	.L606
 4514              		.loc 1 722 0 discriminator 57
 4515 0368 7B68     		ldr	r3, [r7, #4]
 4516 036a 1B68     		ldr	r3, [r3]
 4517 036c 1846     		mov	r0, r3
 4518 036e 2D4B     		ldr	r3, .L833+24
 4519 0370 9842     		cmp	r0, r3
 4520 0372 41D0     		beq	.L607
 4521              		.loc 1 722 0 discriminator 59
 4522 0374 7B68     		ldr	r3, [r7, #4]
 4523 0376 1B68     		ldr	r3, [r3]
 4524 0378 1846     		mov	r0, r3
 4525 037a 2B4B     		ldr	r3, .L833+28
 4526 037c 9842     		cmp	r0, r3
ARM GAS  /tmp/cccQDy3L.s 			page 93


 4527 037e 38D0     		beq	.L608
 4528              		.loc 1 722 0 discriminator 61
 4529 0380 7B68     		ldr	r3, [r7, #4]
 4530 0382 1B68     		ldr	r3, [r3]
 4531 0384 1846     		mov	r0, r3
 4532 0386 294B     		ldr	r3, .L833+32
 4533 0388 9842     		cmp	r0, r3
 4534 038a 2FD0     		beq	.L609
 4535              		.loc 1 722 0 discriminator 63
 4536 038c 7B68     		ldr	r3, [r7, #4]
 4537 038e 1B68     		ldr	r3, [r3]
 4538 0390 1846     		mov	r0, r3
 4539 0392 274B     		ldr	r3, .L833+36
 4540 0394 9842     		cmp	r0, r3
 4541 0396 26D0     		beq	.L610
 4542              		.loc 1 722 0 discriminator 65
 4543 0398 7B68     		ldr	r3, [r7, #4]
 4544 039a 1B68     		ldr	r3, [r3]
 4545 039c 1846     		mov	r0, r3
 4546 039e 254B     		ldr	r3, .L833+40
 4547 03a0 9842     		cmp	r0, r3
 4548 03a2 1DD0     		beq	.L611
 4549              		.loc 1 722 0 discriminator 67
 4550 03a4 7B68     		ldr	r3, [r7, #4]
 4551 03a6 1B68     		ldr	r3, [r3]
 4552 03a8 1846     		mov	r0, r3
 4553 03aa 234B     		ldr	r3, .L833+44
 4554 03ac 9842     		cmp	r0, r3
 4555 03ae 14D0     		beq	.L612
 4556              		.loc 1 722 0 discriminator 69
 4557 03b0 7B68     		ldr	r3, [r7, #4]
 4558 03b2 1B68     		ldr	r3, [r3]
 4559 03b4 1846     		mov	r0, r3
 4560 03b6 214B     		ldr	r3, .L833+48
 4561 03b8 9842     		cmp	r0, r3
 4562 03ba 0BD0     		beq	.L613
 4563              		.loc 1 722 0 discriminator 71
 4564 03bc 7B68     		ldr	r3, [r7, #4]
 4565 03be 1B68     		ldr	r3, [r3]
 4566 03c0 1846     		mov	r0, r3
 4567 03c2 1F4B     		ldr	r3, .L833+52
 4568 03c4 9842     		cmp	r0, r3
 4569 03c6 02D1     		bne	.L614
 4570              		.loc 1 722 0 discriminator 73
 4571 03c8 4FF40003 		mov	r3, #8388608
 4572 03cc 3DE0     		b	.L626
 4573              	.L614:
 4574              		.loc 1 722 0 discriminator 74
 4575 03ce 4FF00063 		mov	r3, #134217728
 4576 03d2 3AE0     		b	.L626
 4577              	.L613:
 4578              		.loc 1 722 0 discriminator 72
 4579 03d4 4FF40003 		mov	r3, #8388608
 4580 03d8 37E0     		b	.L626
 4581              	.L612:
 4582              		.loc 1 722 0 discriminator 70
 4583 03da 4FF40023 		mov	r3, #524288
ARM GAS  /tmp/cccQDy3L.s 			page 94


 4584 03de 34E0     		b	.L626
 4585              	.L611:
 4586              		.loc 1 722 0 discriminator 68
 4587 03e0 4FF40023 		mov	r3, #524288
 4588 03e4 31E0     		b	.L626
 4589              	.L610:
 4590              		.loc 1 722 0 discriminator 66
 4591 03e6 4FF40043 		mov	r3, #32768
 4592 03ea 2EE0     		b	.L626
 4593              	.L609:
 4594              		.loc 1 722 0 discriminator 64
 4595 03ec 4FF40043 		mov	r3, #32768
 4596 03f0 2BE0     		b	.L626
 4597              	.L608:
 4598              		.loc 1 722 0 discriminator 62
 4599 03f2 4FF40063 		mov	r3, #2048
 4600 03f6 28E0     		b	.L626
 4601              	.L607:
 4602              		.loc 1 722 0 discriminator 60
 4603 03f8 4FF40063 		mov	r3, #2048
 4604 03fc 25E0     		b	.L626
 4605              	.L606:
 4606              		.loc 1 722 0 discriminator 58
 4607 03fe 8023     		movs	r3, #128
 4608 0400 23E0     		b	.L626
 4609              	.L605:
 4610              		.loc 1 722 0 discriminator 56
 4611 0402 8023     		movs	r3, #128
 4612 0404 21E0     		b	.L626
 4613              	.L604:
 4614              		.loc 1 722 0 discriminator 54
 4615 0406 0823     		movs	r3, #8
 4616 0408 1FE0     		b	.L626
 4617              	.L834:
 4618 040a 00BF     		.align	2
 4619              	.L833:
 4620 040c 80000240 		.word	1073873024
 4621 0410 00040240 		.word	1073873920
 4622 0414 08000240 		.word	1073872904
 4623 0418 08040240 		.word	1073873928
 4624 041c 1C000240 		.word	1073872924
 4625 0420 1C040240 		.word	1073873948
 4626 0424 30000240 		.word	1073872944
 4627 0428 30040240 		.word	1073873968
 4628 042c 44000240 		.word	1073872964
 4629 0430 44040240 		.word	1073873988
 4630 0434 58000240 		.word	1073872984
 4631 0438 58040240 		.word	1073874008
 4632 043c 6C000240 		.word	1073873004
 4633 0440 6C040240 		.word	1073874028
 4634 0444 00000240 		.word	1073872896
 4635              	.L603:
 4636              		.loc 1 722 0 discriminator 52
 4637 0448 0823     		movs	r3, #8
 4638              	.L626:
 4639              		.loc 1 722 0 discriminator 98
 4640 044a 1343     		orrs	r3, r3, r2
ARM GAS  /tmp/cccQDy3L.s 			page 95


 4641 044c 4B60     		str	r3, [r1, #4]
 4642              	.L602:
 723:Drivers/STM32L4xx_HAL_Driver/Src/stm32l4xx_hal_dma.c **** 
 724:Drivers/STM32L4xx_HAL_Driver/Src/stm32l4xx_hal_dma.c ****       /* Update error code */
 725:Drivers/STM32L4xx_HAL_Driver/Src/stm32l4xx_hal_dma.c ****       hdma->ErrorCode |= HAL_DMA_ERROR_TE;
 4643              		.loc 1 725 0 is_stmt 1
 4644 044e 7B68     		ldr	r3, [r7, #4]
 4645 0450 9B6B     		ldr	r3, [r3, #56]
 4646 0452 43F00102 		orr	r2, r3, #1
 4647 0456 7B68     		ldr	r3, [r7, #4]
 4648 0458 9A63     		str	r2, [r3, #56]
 726:Drivers/STM32L4xx_HAL_Driver/Src/stm32l4xx_hal_dma.c **** 
 727:Drivers/STM32L4xx_HAL_Driver/Src/stm32l4xx_hal_dma.c ****       /* Change the DMA state */
 728:Drivers/STM32L4xx_HAL_Driver/Src/stm32l4xx_hal_dma.c ****       hdma->State = HAL_DMA_STATE_ERROR;
 4649              		.loc 1 728 0
 4650 045a 7B68     		ldr	r3, [r7, #4]
 4651 045c 0422     		movs	r2, #4
 4652 045e 83F82520 		strb	r2, [r3, #37]
 729:Drivers/STM32L4xx_HAL_Driver/Src/stm32l4xx_hal_dma.c **** 
 730:Drivers/STM32L4xx_HAL_Driver/Src/stm32l4xx_hal_dma.c ****       /* Process Unlocked */
 731:Drivers/STM32L4xx_HAL_Driver/Src/stm32l4xx_hal_dma.c ****       __HAL_UNLOCK(hdma);
 4653              		.loc 1 731 0
 4654 0462 7B68     		ldr	r3, [r7, #4]
 4655 0464 0022     		movs	r2, #0
 4656 0466 83F82420 		strb	r2, [r3, #36]
 732:Drivers/STM32L4xx_HAL_Driver/Src/stm32l4xx_hal_dma.c **** 
 733:Drivers/STM32L4xx_HAL_Driver/Src/stm32l4xx_hal_dma.c ****       if (hdma->XferErrorCallback != NULL)
 4657              		.loc 1 733 0
 4658 046a 7B68     		ldr	r3, [r7, #4]
 4659 046c 5B6B     		ldr	r3, [r3, #52]
 4660 046e 002B     		cmp	r3, #0
 4661 0470 03D0     		beq	.L576
 734:Drivers/STM32L4xx_HAL_Driver/Src/stm32l4xx_hal_dma.c ****       {
 735:Drivers/STM32L4xx_HAL_Driver/Src/stm32l4xx_hal_dma.c ****         /* Transfer error callback */
 736:Drivers/STM32L4xx_HAL_Driver/Src/stm32l4xx_hal_dma.c ****         hdma->XferErrorCallback(hdma);
 4662              		.loc 1 736 0
 4663 0472 7B68     		ldr	r3, [r7, #4]
 4664 0474 5B6B     		ldr	r3, [r3, #52]
 4665 0476 7868     		ldr	r0, [r7, #4]
 4666 0478 9847     		blx	r3
 4667              	.L576:
 737:Drivers/STM32L4xx_HAL_Driver/Src/stm32l4xx_hal_dma.c ****       }
 738:Drivers/STM32L4xx_HAL_Driver/Src/stm32l4xx_hal_dma.c ****     }
 739:Drivers/STM32L4xx_HAL_Driver/Src/stm32l4xx_hal_dma.c ****   }
 740:Drivers/STM32L4xx_HAL_Driver/Src/stm32l4xx_hal_dma.c **** 
 741:Drivers/STM32L4xx_HAL_Driver/Src/stm32l4xx_hal_dma.c ****   /* Half Transfer Complete Interrupt management ******************************/
 742:Drivers/STM32L4xx_HAL_Driver/Src/stm32l4xx_hal_dma.c ****   if(__HAL_DMA_GET_FLAG(hdma, __HAL_DMA_GET_HT_FLAG_INDEX(hdma)) != RESET)
 4668              		.loc 1 742 0
 4669 047a 7B68     		ldr	r3, [r7, #4]
 4670 047c 1B68     		ldr	r3, [r3]
 4671 047e 1A46     		mov	r2, r3
 4672 0480 704B     		ldr	r3, .L835
 4673 0482 9A42     		cmp	r2, r3
 4674 0484 72D9     		bls	.L627
 4675              		.loc 1 742 0 is_stmt 0 discriminator 1
 4676 0486 704B     		ldr	r3, .L835+4
 4677 0488 1A68     		ldr	r2, [r3]
ARM GAS  /tmp/cccQDy3L.s 			page 96


 4678 048a 7B68     		ldr	r3, [r7, #4]
 4679 048c 1B68     		ldr	r3, [r3]
 4680 048e 1946     		mov	r1, r3
 4681 0490 6E4B     		ldr	r3, .L835+8
 4682 0492 9942     		cmp	r1, r3
 4683 0494 62D0     		beq	.L628
 4684              		.loc 1 742 0 discriminator 3
 4685 0496 7B68     		ldr	r3, [r7, #4]
 4686 0498 1B68     		ldr	r3, [r3]
 4687 049a 1946     		mov	r1, r3
 4688 049c 6C4B     		ldr	r3, .L835+12
 4689 049e 9942     		cmp	r1, r3
 4690 04a0 5AD0     		beq	.L629
 4691              		.loc 1 742 0 discriminator 5
 4692 04a2 7B68     		ldr	r3, [r7, #4]
 4693 04a4 1B68     		ldr	r3, [r3]
 4694 04a6 1946     		mov	r1, r3
 4695 04a8 6A4B     		ldr	r3, .L835+16
 4696 04aa 9942     		cmp	r1, r3
 4697 04ac 52D0     		beq	.L630
 4698              		.loc 1 742 0 discriminator 7
 4699 04ae 7B68     		ldr	r3, [r7, #4]
 4700 04b0 1B68     		ldr	r3, [r3]
 4701 04b2 1946     		mov	r1, r3
 4702 04b4 684B     		ldr	r3, .L835+20
 4703 04b6 9942     		cmp	r1, r3
 4704 04b8 4AD0     		beq	.L631
 4705              		.loc 1 742 0 discriminator 9
 4706 04ba 7B68     		ldr	r3, [r7, #4]
 4707 04bc 1B68     		ldr	r3, [r3]
 4708 04be 1946     		mov	r1, r3
 4709 04c0 664B     		ldr	r3, .L835+24
 4710 04c2 9942     		cmp	r1, r3
 4711 04c4 41D0     		beq	.L632
 4712              		.loc 1 742 0 discriminator 11
 4713 04c6 7B68     		ldr	r3, [r7, #4]
 4714 04c8 1B68     		ldr	r3, [r3]
 4715 04ca 1946     		mov	r1, r3
 4716 04cc 644B     		ldr	r3, .L835+28
 4717 04ce 9942     		cmp	r1, r3
 4718 04d0 38D0     		beq	.L633
 4719              		.loc 1 742 0 discriminator 13
 4720 04d2 7B68     		ldr	r3, [r7, #4]
 4721 04d4 1B68     		ldr	r3, [r3]
 4722 04d6 1946     		mov	r1, r3
 4723 04d8 624B     		ldr	r3, .L835+32
 4724 04da 9942     		cmp	r1, r3
 4725 04dc 2FD0     		beq	.L634
 4726              		.loc 1 742 0 discriminator 15
 4727 04de 7B68     		ldr	r3, [r7, #4]
 4728 04e0 1B68     		ldr	r3, [r3]
 4729 04e2 1946     		mov	r1, r3
 4730 04e4 604B     		ldr	r3, .L835+36
 4731 04e6 9942     		cmp	r1, r3
 4732 04e8 26D0     		beq	.L635
 4733              		.loc 1 742 0 discriminator 17
 4734 04ea 7B68     		ldr	r3, [r7, #4]
ARM GAS  /tmp/cccQDy3L.s 			page 97


 4735 04ec 1B68     		ldr	r3, [r3]
 4736 04ee 1946     		mov	r1, r3
 4737 04f0 5E4B     		ldr	r3, .L835+40
 4738 04f2 9942     		cmp	r1, r3
 4739 04f4 1DD0     		beq	.L636
 4740              		.loc 1 742 0 discriminator 19
 4741 04f6 7B68     		ldr	r3, [r7, #4]
 4742 04f8 1B68     		ldr	r3, [r3]
 4743 04fa 1946     		mov	r1, r3
 4744 04fc 5C4B     		ldr	r3, .L835+44
 4745 04fe 9942     		cmp	r1, r3
 4746 0500 14D0     		beq	.L637
 4747              		.loc 1 742 0 discriminator 21
 4748 0502 7B68     		ldr	r3, [r7, #4]
 4749 0504 1B68     		ldr	r3, [r3]
 4750 0506 1946     		mov	r1, r3
 4751 0508 5A4B     		ldr	r3, .L835+48
 4752 050a 9942     		cmp	r1, r3
 4753 050c 0BD0     		beq	.L638
 4754              		.loc 1 742 0 discriminator 23
 4755 050e 7B68     		ldr	r3, [r7, #4]
 4756 0510 1B68     		ldr	r3, [r3]
 4757 0512 1946     		mov	r1, r3
